Archive member included to satisfy reference by file (symbol)

c:/vega/toolchain/riscv32-unknown-elf-gcc/bin/../lib/gcc/riscv32-unknown-elf/7.1.1/../../../../riscv32-unknown-elf/lib\libc.a(lib_a-init.o)
                              startup\startup_RV32M1_zero_riscy.o (__libc_init_array)
c:/vega/toolchain/riscv32-unknown-elf-gcc/bin/../lib/gcc/riscv32-unknown-elf/7.1.1/../../../../riscv32-unknown-elf/lib\libc.a(lib_a-memcpy.o)
                              freertos\queue.o (memcpy)
c:/vega/toolchain/riscv32-unknown-elf-gcc/bin/../lib/gcc/riscv32-unknown-elf/7.1.1/../../../../riscv32-unknown-elf/lib\libc.a(lib_a-memset.o)
                              drivers\fsl_lpuart.o (memset)
c:/vega/toolchain/riscv32-unknown-elf-gcc/bin/../lib/gcc/riscv32-unknown-elf/7.1.1/../../../../riscv32-unknown-elf/lib\libc.a(lib_a-strlen.o)
                              source\freertos_lpuart.o (strlen)

Discarded input sections

 .text          0x0000000000000000        0x0 board\board.o
 .data          0x0000000000000000        0x0 board\board.o
 .bss           0x0000000000000000        0x0 board\board.o
 .text          0x0000000000000000        0x0 board\clock_config.o
 .data          0x0000000000000000        0x0 board\clock_config.o
 .bss           0x0000000000000000        0x0 board\clock_config.o
 .text.CLOCK_SetVlprModeSysClkConfig
                0x0000000000000000       0x4c board\clock_config.o
 .text.CLOCK_SetHsrunModeSysClkConfig
                0x0000000000000000       0x4c board\clock_config.o
 .text.SMC_SetPowerModeProtection
                0x0000000000000000       0x22 board\clock_config.o
 .text.SMC_GetPowerModeState
                0x0000000000000000       0x1c board\clock_config.o
 .text.BOARD_InitBootClocks
                0x0000000000000000       0x1a board\clock_config.o
 .rodata.g_scgSysOscConfig_BOARD_BootClockRUN
                0x0000000000000000       0x18 board\clock_config.o
 .sdata.g_sysClkConfig_BOARD_BootClockHSRUN
                0x0000000000000000        0x4 board\clock_config.o
 .rodata.g_scgSysOscConfig_BOARD_BootClockHSRUN
                0x0000000000000000       0x18 board\clock_config.o
 .rodata.g_scgSircConfig_BOARD_BootClockHSRUN
                0x0000000000000000       0x14 board\clock_config.o
 .rodata.g_scgFircConfig_BOARD_BootClockHSRUN
                0x0000000000000000       0x18 board\clock_config.o
 .rodata.g_scgLpFllConfig_BOARD_BootClockHSRUN
                0x0000000000000000       0x18 board\clock_config.o
 .text.BOARD_BootClockHSRUN
                0x0000000000000000       0xb4 board\clock_config.o
 .sdata.g_sysClkConfig_BOARD_BootClockVLPR
                0x0000000000000000        0x4 board\clock_config.o
 .rodata.g_scgSysOscConfig_BOARD_BootClockVLPR
                0x0000000000000000       0x18 board\clock_config.o
 .rodata.g_scgSircConfig_BOARD_BootClockVLPR
                0x0000000000000000       0x14 board\clock_config.o
 .rodata.g_scgFircConfig_BOARD_BootClockVLPR
                0x0000000000000000       0x18 board\clock_config.o
 .rodata.g_scgLpFllConfig_BOARD_BootClockVLPR
                0x0000000000000000       0x18 board\clock_config.o
 .text.BOARD_BootClockVLPR
                0x0000000000000000       0xb2 board\clock_config.o
 .rodata.__func__.3669
                0x0000000000000000       0x1f board\clock_config.o
 .rodata.__func__.3661
                0x0000000000000000       0x1e board\clock_config.o
 .text          0x0000000000000000        0x0 board\pin_mux.o
 .data          0x0000000000000000        0x0 board\pin_mux.o
 .bss           0x0000000000000000        0x0 board\pin_mux.o
 .text.BOARD_InitBootPins
                0x0000000000000000       0x1a board\pin_mux.o
 .text          0x0000000000000000        0x0 drivers\freertos\fsl_lpuart_freertos.o
 .data          0x0000000000000000        0x0 drivers\freertos\fsl_lpuart_freertos.o
 .bss           0x0000000000000000        0x0 drivers\freertos\fsl_lpuart_freertos.o
 .text          0x0000000000000000        0x0 drivers\fsl_clock.o
 .data          0x0000000000000000        0x0 drivers\fsl_clock.o
 .bss           0x0000000000000000        0x0 drivers\fsl_clock.o
 .text.CLOCK_EnableClock
                0x0000000000000000       0x56 drivers\fsl_clock.o
 .text.CLOCK_SetIpSrc
                0x0000000000000000       0xbc drivers\fsl_clock.o
 .text.CLOCK_GetLpoClkFreq
                0x0000000000000000       0x12 drivers\fsl_clock.o
 .text.CLOCK_GetCurSysClkConfig
                0x0000000000000000       0x4c drivers\fsl_clock.o
 .sbss.g_xtal32Freq
                0x0000000000000000        0x4 drivers\fsl_clock.o
 .text.CLOCK_GetOsc32kClkFreq
                0x0000000000000000       0x48 drivers\fsl_clock.o
 .text.CLOCK_GetFlashClkFreq
                0x0000000000000000       0x1e drivers\fsl_clock.o
 .text.CLOCK_GetBusClkFreq
                0x0000000000000000       0x1e drivers\fsl_clock.o
 .text.CLOCK_GetPlatClkFreq
                0x0000000000000000       0x1e drivers\fsl_clock.o
 .text.CLOCK_GetCoreSysClkFreq
                0x0000000000000000       0x1e drivers\fsl_clock.o
 .text.CLOCK_GetExtClkFreq
                0x0000000000000000       0x1e drivers\fsl_clock.o
 .text.CLOCK_GetFreq
                0x0000000000000000      0x194 drivers\fsl_clock.o
 .rodata.CLOCK_GetFreq
                0x0000000000000000       0x64 drivers\fsl_clock.o
 .text.CLOCK_EnableUsbfs0Clock
                0x0000000000000000       0xaa drivers\fsl_clock.o
 .text.CLOCK_GetSysClkFreq
                0x0000000000000000      0x114 drivers\fsl_clock.o
 .rodata.CLOCK_GetSysClkFreq
                0x0000000000000000       0x18 drivers\fsl_clock.o
 .text.CLOCK_InitSysOsc
                0x0000000000000000       0xdc drivers\fsl_clock.o
 .text.CLOCK_DeinitSysOsc
                0x0000000000000000       0x4c drivers\fsl_clock.o
 .text.CLOCK_GetRtcOscFreq
                0x0000000000000000       0x5c drivers\fsl_clock.o
 .rodata.__func__.3814
                0x0000000000000000       0x17 drivers\fsl_clock.o
 .rodata.__func__.3632
                0x0000000000000000        0xf drivers\fsl_clock.o
 .rodata.__func__.3618
                0x0000000000000000       0x12 drivers\fsl_clock.o
 .rodata.__func__.3689
                0x0000000000000000       0x19 drivers\fsl_clock.o
 .rodata.__func__.3898
                0x0000000000000000       0x11 drivers\fsl_clock.o
 .rodata.__func__.3977
                0x0000000000000000       0x14 drivers\fsl_clock.o
 .text          0x0000000000000000        0x0 drivers\fsl_common.o
 .data          0x0000000000000000        0x0 drivers\fsl_common.o
 .bss           0x0000000000000000        0x0 drivers\fsl_common.o
 .text          0x0000000000000000        0x0 drivers\fsl_gpio.o
 .data          0x0000000000000000        0x0 drivers\fsl_gpio.o
 .bss           0x0000000000000000        0x0 drivers\fsl_gpio.o
 .rodata        0x0000000000000000       0xf4 drivers\fsl_gpio.o
 .text.CLOCK_EnableClock
                0x0000000000000000       0x56 drivers\fsl_gpio.o
 .text.GPIO_WritePinOutput
                0x0000000000000000       0x44 drivers\fsl_gpio.o
 .text.FGPIO_WritePinOutput
                0x0000000000000000       0x48 drivers\fsl_gpio.o
 .rodata.s_portBases
                0x0000000000000000       0x14 drivers\fsl_gpio.o
 .rodata.s_gpioBases
                0x0000000000000000       0x14 drivers\fsl_gpio.o
 .rodata.s_fgpioClockName
                0x0000000000000000       0x14 drivers\fsl_gpio.o
 .text.GPIO_GetInstance
                0x0000000000000000       0x80 drivers\fsl_gpio.o
 .text.GPIO_PinInit
                0x0000000000000000       0xa0 drivers\fsl_gpio.o
 .text.GPIO_GetPinsInterruptFlags
                0x0000000000000000       0x46 drivers\fsl_gpio.o
 .text.GPIO_ClearPinsInterruptFlags
                0x0000000000000000       0x4e drivers\fsl_gpio.o
 .rodata.s_fgpioBases
                0x0000000000000000       0x14 drivers\fsl_gpio.o
 .text.FGPIO_GetInstance
                0x0000000000000000       0x80 drivers\fsl_gpio.o
 .text.FGPIO_Init
                0x0000000000000000       0x3c drivers\fsl_gpio.o
 .text.FGPIO_PinInit
                0x0000000000000000       0xa0 drivers\fsl_gpio.o
 .text.FGPIO_GetPinsInterruptFlags
                0x0000000000000000       0x46 drivers\fsl_gpio.o
 .text.FGPIO_ClearPinsInterruptFlags
                0x0000000000000000       0x4e drivers\fsl_gpio.o
 .rodata.__func__.3891
                0x0000000000000000       0x11 drivers\fsl_gpio.o
 .rodata.__func__.3897
                0x0000000000000000        0xd drivers\fsl_gpio.o
 .rodata.__func__.3919
                0x0000000000000000       0x12 drivers\fsl_gpio.o
 .rodata.__func__.3602
                0x0000000000000000       0x12 drivers\fsl_gpio.o
 .rodata.__func__.3928
                0x0000000000000000        0xe drivers\fsl_gpio.o
 .debug_frame   0x0000000000000000      0x2d0 drivers\fsl_gpio.o
 .debug_info    0x0000000000000000     0x12ca drivers\fsl_gpio.o
 .debug_abbrev  0x0000000000000000      0x2cb drivers\fsl_gpio.o
 .debug_aranges
                0x0000000000000000       0x78 drivers\fsl_gpio.o
 .debug_ranges  0x0000000000000000       0x68 drivers\fsl_gpio.o
 .debug_line    0x0000000000000000      0x45b drivers\fsl_gpio.o
 .debug_str     0x0000000000000000     0x10d2 drivers\fsl_gpio.o
 .comment       0x0000000000000000       0x1b drivers\fsl_gpio.o
 .Pulp_Chip.Info
                0x0000000000000000        0x0 drivers\fsl_gpio.o
 .text          0x0000000000000000        0x0 drivers\fsl_intmux.o
 .data          0x0000000000000000        0x0 drivers\fsl_intmux.o
 .bss           0x0000000000000000        0x0 drivers\fsl_intmux.o
 .text.CLOCK_DisableClock
                0x0000000000000000       0x58 drivers\fsl_intmux.o
 .text.DisableIRQ
                0x0000000000000000       0x54 drivers\fsl_intmux.o
 .text.INTMUX_Deinit
                0x0000000000000000       0x82 drivers\fsl_intmux.o
 .rodata.__func__.3606
                0x0000000000000000       0x13 drivers\fsl_intmux.o
 .text          0x0000000000000000        0x0 drivers\fsl_lpuart.o
 .data          0x0000000000000000        0x0 drivers\fsl_lpuart.o
 .bss           0x0000000000000000        0x0 drivers\fsl_lpuart.o
 .text.LPUART_SetBaudRate
                0x0000000000000000      0x1fe drivers\fsl_lpuart.o
 .text.LPUART_GetEnabledInterrupts
                0x0000000000000000       0x50 drivers\fsl_lpuart.o
 .text.LPUART_TransferStopRingBuffer
                0x0000000000000000       0x86 drivers\fsl_lpuart.o
 .text.LPUART_TransferAbortSend
                0x0000000000000000       0x64 drivers\fsl_lpuart.o
 .text.LPUART_TransferGetSendCount
                0x0000000000000000       0x9a drivers\fsl_lpuart.o
 .text.LPUART_TransferGetReceiveCount
                0x0000000000000000       0x9e drivers\fsl_lpuart.o
 .text.LPUART_TransferHandleErrorIRQ
                0x0000000000000000       0x16 drivers\fsl_lpuart.o
 .rodata.__func__.4151
                0x0000000000000000       0x13 drivers\fsl_lpuart.o
 .rodata.__func__.4234
                0x0000000000000000       0x1e drivers\fsl_lpuart.o
 .rodata.__func__.4246
                0x0000000000000000       0x19 drivers\fsl_lpuart.o
 .rodata.__func__.4252
                0x0000000000000000       0x1c drivers\fsl_lpuart.o
 .rodata.__func__.4278
                0x0000000000000000       0x1f drivers\fsl_lpuart.o
 .text          0x0000000000000000        0x0 drivers\fsl_msmc.o
 .data          0x0000000000000000        0x0 drivers\fsl_msmc.o
 .bss           0x0000000000000000        0x0 drivers\fsl_msmc.o
 .text.SMC_SetPowerModeRun
                0x0000000000000000       0x34 drivers\fsl_msmc.o
 .text.SMC_SetPowerModeHsrun
                0x0000000000000000       0x40 drivers\fsl_msmc.o
 .text.SMC_SetPowerModeWait
                0x0000000000000000       0x34 drivers\fsl_msmc.o
 .text.SMC_SetPowerModeStop
                0x0000000000000000       0x6e drivers\fsl_msmc.o
 .text.SMC_SetPowerModeVlpr
                0x0000000000000000       0x40 drivers\fsl_msmc.o
 .text.SMC_SetPowerModeVlpw
                0x0000000000000000       0x34 drivers\fsl_msmc.o
 .text.SMC_SetPowerModeVlps
                0x0000000000000000       0x60 drivers\fsl_msmc.o
 .text.SMC_SetPowerModeLls
                0x0000000000000000       0x60 drivers\fsl_msmc.o
 .text.SMC_SetPowerModeVlls0
                0x0000000000000000       0x60 drivers\fsl_msmc.o
 .text.SMC_SetPowerModeVlls2
                0x0000000000000000       0x60 drivers\fsl_msmc.o
 .rodata        0x0000000000000000       0x3f drivers\fsl_msmc.o
 .text.SMC_ConfigureResetPinFilter
                0x0000000000000000       0x6e drivers\fsl_msmc.o
 .rodata.__func__.3995
                0x0000000000000000       0x1c drivers\fsl_msmc.o
 .debug_frame   0x0000000000000000      0x254 drivers\fsl_msmc.o
 .debug_info    0x0000000000000000     0x1025 drivers\fsl_msmc.o
 .debug_abbrev  0x0000000000000000      0x25e drivers\fsl_msmc.o
 .debug_aranges
                0x0000000000000000       0x70 drivers\fsl_msmc.o
 .debug_ranges  0x0000000000000000       0x60 drivers\fsl_msmc.o
 .debug_line    0x0000000000000000      0x4e0 drivers\fsl_msmc.o
 .debug_str     0x0000000000000000      0xa96 drivers\fsl_msmc.o
 .comment       0x0000000000000000       0x1b drivers\fsl_msmc.o
 .Pulp_Chip.Info
                0x0000000000000000        0x0 drivers\fsl_msmc.o
 .text          0x0000000000000000        0x0 freertos\croutine.o
 .data          0x0000000000000000        0x0 freertos\croutine.o
 .bss           0x0000000000000000        0x0 freertos\croutine.o
 .debug_info    0x0000000000000000      0x8cd freertos\croutine.o
 .debug_abbrev  0x0000000000000000      0x192 freertos\croutine.o
 .debug_aranges
                0x0000000000000000       0x18 freertos\croutine.o
 .debug_line    0x0000000000000000      0x1cb freertos\croutine.o
 .debug_str     0x0000000000000000      0x64a freertos\croutine.o
 .comment       0x0000000000000000       0x1b freertos\croutine.o
 .Pulp_Chip.Info
                0x0000000000000000        0x0 freertos\croutine.o
 .text          0x0000000000000000        0x0 freertos\event_groups.o
 .data          0x0000000000000000        0x0 freertos\event_groups.o
 .bss           0x0000000000000000        0x0 freertos\event_groups.o
 .text.xEventGroupSync
                0x0000000000000000      0x1a8 freertos\event_groups.o
 .text.xEventGroupClearBitsFromISR
                0x0000000000000000       0x3c freertos\event_groups.o
 .text.xEventGroupGetBitsFromISR
                0x0000000000000000       0x44 freertos\event_groups.o
 .text.vEventGroupClearBitsCallback
                0x0000000000000000       0x2a freertos\event_groups.o
 .text.uxEventGroupGetNumber
                0x0000000000000000       0x34 freertos\event_groups.o
 .text          0x0000000000000000        0x0 freertos\heap_4.o
 .data          0x0000000000000000        0x0 freertos\heap_4.o
 .bss           0x0000000000000000        0x0 freertos\heap_4.o
 .sdata.xHeapStructSize
                0x0000000000000000        0x4 freertos\heap_4.o
 .text.xPortGetFreeHeapSize
                0x0000000000000000       0x16 freertos\heap_4.o
 .text.xPortGetMinimumEverFreeHeapSize
                0x0000000000000000       0x16 freertos\heap_4.o
 .text.vPortInitialiseBlocks
                0x0000000000000000        0xe freertos\heap_4.o
 .text          0x0000000000000000        0x0 freertos\list.o
 .data          0x0000000000000000        0x0 freertos\list.o
 .bss           0x0000000000000000        0x0 freertos\list.o
 .text          0x0000000000000000        0x0 freertos\portable\port.o
 .data          0x0000000000000000        0x0 freertos\portable\port.o
 .bss           0x0000000000000000        0x0 freertos\portable\port.o
 .text.vPortEndScheduler
                0x0000000000000000       0x12 freertos\portable\port.o
 .bss           0x0000000000000000        0x0 freertos\portable\portASM.o
 .text          0x0000000000000000        0x0 freertos\queue.o
 .data          0x0000000000000000        0x0 freertos\queue.o
 .bss           0x0000000000000000        0x0 freertos\queue.o
 .text.xQueueGiveMutexRecursive
                0x0000000000000000       0x80 freertos\queue.o
 .text.xQueueTakeMutexRecursive
                0x0000000000000000       0x94 freertos\queue.o
 .text.xQueueCreateCountingSemaphore
                0x0000000000000000       0x68 freertos\queue.o
 .text.xQueueGiveFromISR
                0x0000000000000000      0x110 freertos\queue.o
 .text.xQueueReceiveFromISR
                0x0000000000000000      0x106 freertos\queue.o
 .text.xQueuePeekFromISR
                0x0000000000000000       0xb8 freertos\queue.o
 .text.uxQueueMessagesWaiting
                0x0000000000000000       0x44 freertos\queue.o
 .text.uxQueueSpacesAvailable
                0x0000000000000000       0x56 freertos\queue.o
 .text.uxQueueMessagesWaitingFromISR
                0x0000000000000000       0x34 freertos\queue.o
 .text.uxQueueGetQueueNumber
                0x0000000000000000       0x18 freertos\queue.o
 .text.vQueueSetQueueNumber
                0x0000000000000000       0x20 freertos\queue.o
 .text.ucQueueGetQueueType
                0x0000000000000000       0x1a freertos\queue.o
 .text.xQueueIsQueueEmptyFromISR
                0x0000000000000000       0x3e freertos\queue.o
 .text.xQueueIsQueueFullFromISR
                0x0000000000000000       0x46 freertos\queue.o
 .text.pcQueueGetName
                0x0000000000000000       0x66 freertos\queue.o
 .text          0x0000000000000000        0x0 freertos\tasks.o
 .data          0x0000000000000000        0x0 freertos\tasks.o
 .bss           0x0000000000000000        0x0 freertos\tasks.o
 .text.vTaskDelete
                0x0000000000000000      0x116 freertos\tasks.o
 .text.vTaskDelayUntil
                0x0000000000000000      0x108 freertos\tasks.o
 .text.vTaskDelay
                0x0000000000000000       0x64 freertos\tasks.o
 .text.eTaskGetState
                0x0000000000000000       0xd6 freertos\tasks.o
 .text.uxTaskPriorityGet
                0x0000000000000000       0x4c freertos\tasks.o
 .text.uxTaskPriorityGetFromISR
                0x0000000000000000       0x54 freertos\tasks.o
 .text.vTaskPrioritySet
                0x0000000000000000      0x1a2 freertos\tasks.o
 .text.prvTaskIsTaskSuspended
                0x0000000000000000       0x78 freertos\tasks.o
 .text.vTaskResume
                0x0000000000000000       0xda freertos\tasks.o
 .text.xTaskResumeFromISR
                0x0000000000000000       0xf6 freertos\tasks.o
 .text.vTaskEndScheduler
                0x0000000000000000       0x2a freertos\tasks.o
 .text.xTaskGetTickCountFromISR
                0x0000000000000000       0x3a freertos\tasks.o
 .text.uxTaskGetNumberOfTasks
                0x0000000000000000       0x16 freertos\tasks.o
 .text.pcTaskGetName
                0x0000000000000000       0x46 freertos\tasks.o
 .text.uxTaskGetSystemState
                0x0000000000000000      0x184 freertos\tasks.o
 .text.uxTaskGetTaskNumber
                0x0000000000000000       0x34 freertos\tasks.o
 .text.vTaskSetTaskNumber
                0x0000000000000000       0x2e freertos\tasks.o
 .text.vTaskSetThreadLocalStoragePointer
                0x0000000000000000       0x50 freertos\tasks.o
 .text.pvTaskGetThreadLocalStoragePointer
                0x0000000000000000       0x5a freertos\tasks.o
 .text.vTaskGetInfo
                0x0000000000000000      0x10c freertos\tasks.o
 .text.prvListTasksWithinSingleList
                0x0000000000000000       0xec freertos\tasks.o
 .text.prvTaskCheckFreeStackSpace
                0x0000000000000000       0x4e freertos\tasks.o
 .text.xTaskGetCurrentTaskHandle
                0x0000000000000000       0x1e freertos\tasks.o
 .text.ulTaskNotifyTake
                0x0000000000000000       0xb8 freertos\tasks.o
 .text.xTaskNotifyWait
                0x0000000000000000       0xf6 freertos\tasks.o
 .text.xTaskGenericNotify
                0x0000000000000000      0x17e freertos\tasks.o
 .rodata.xTaskGenericNotify
                0x0000000000000000       0x14 freertos\tasks.o
 .text.xTaskGenericNotifyFromISR
                0x0000000000000000      0x1c0 freertos\tasks.o
 .rodata.xTaskGenericNotifyFromISR
                0x0000000000000000       0x14 freertos\tasks.o
 .text.vTaskNotifyGiveFromISR
                0x0000000000000000      0x138 freertos\tasks.o
 .text.xTaskNotifyStateClear
                0x0000000000000000       0x68 freertos\tasks.o
 .text          0x0000000000000000        0x0 freertos\timers.o
 .data          0x0000000000000000        0x0 freertos\timers.o
 .bss           0x0000000000000000        0x0 freertos\timers.o
 .text.xTimerCreate
                0x0000000000000000       0x60 freertos\timers.o
 .text.prvInitialiseNewTimer
                0x0000000000000000       0x8a freertos\timers.o
 .text.xTimerGetTimerDaemonTaskHandle
                0x0000000000000000       0x2e freertos\timers.o
 .text.xTimerGetPeriod
                0x0000000000000000       0x34 freertos\timers.o
 .text.xTimerGetExpiryTime
                0x0000000000000000       0x3c freertos\timers.o
 .text.pcTimerGetName
                0x0000000000000000       0x34 freertos\timers.o
 .text.xTimerIsTimerActive
                0x0000000000000000       0x54 freertos\timers.o
 .text.pvTimerGetTimerID
                0x0000000000000000       0x4c freertos\timers.o
 .text.vTimerSetTimerID
                0x0000000000000000       0x4c freertos\timers.o
 .text.xTimerPendFunctionCall
                0x0000000000000000       0x7a freertos\timers.o
 .text          0x0000000000000000        0x0 source\freertos_lpuart.o
 .data          0x0000000000000000        0x0 source\freertos_lpuart.o
 .bss           0x0000000000000000        0x0 source\freertos_lpuart.o
 .text          0x0000000000000000        0x0 startup\startup_RV32M1_zero_riscy.o
 .data          0x0000000000000000        0x0 startup\startup_RV32M1_zero_riscy.o
 .bss           0x0000000000000000        0x0 startup\startup_RV32M1_zero_riscy.o
 .text          0x0000000000000000        0x0 startup\system_RV32M1_zero_riscy.o
 .data          0x0000000000000000        0x0 startup\system_RV32M1_zero_riscy.o
 .bss           0x0000000000000000        0x0 startup\system_RV32M1_zero_riscy.o
 .text.SystemCoreClockUpdate
                0x0000000000000000       0xe6 startup\system_RV32M1_zero_riscy.o
 .text.SystemGetIRQNestingLevel
                0x0000000000000000       0x16 startup\system_RV32M1_zero_riscy.o
 .text.SystemInISR
                0x0000000000000000       0x1c startup\system_RV32M1_zero_riscy.o
 .text.EVENT_SystemReset
                0x0000000000000000       0x24 startup\system_RV32M1_zero_riscy.o
 .text          0x0000000000000000        0x0 utilities\fsl_debug_console.o
 .data          0x0000000000000000        0x0 utilities\fsl_debug_console.o
 .bss           0x0000000000000000        0x0 utilities\fsl_debug_console.o
 .text.DbgConsole_Deinit
                0x0000000000000000       0x1c utilities\fsl_debug_console.o
 .text.DbgConsole_Flush
                0x0000000000000000       0x1c utilities\fsl_debug_console.o
 .text.DbgConsole_Putchar
                0x0000000000000000       0x28 utilities\fsl_debug_console.o
 .text.DbgConsole_Scanf
                0x0000000000000000       0x7a utilities\fsl_debug_console.o
 .text.DbgConsole_Getchar
                0x0000000000000000       0x24 utilities\fsl_debug_console.o
 .text._write   0x0000000000000000       0x56 utilities\fsl_debug_console.o
 .text._read    0x0000000000000000       0x3c utilities\fsl_debug_console.o
 .text.isatty   0x0000000000000000       0x14 utilities\fsl_debug_console.o
 .text.fstat    0x0000000000000000       0x20 utilities\fsl_debug_console.o
 .text.lseek    0x0000000000000000       0x1c utilities\fsl_debug_console.o
 .text.close    0x0000000000000000       0x14 utilities\fsl_debug_console.o
 .text.read     0x0000000000000000       0x3a utilities\fsl_debug_console.o
 .text.write    0x0000000000000000       0x54 utilities\fsl_debug_console.o
 .text          0x0000000000000000        0x0 utilities\fsl_io.o
 .data          0x0000000000000000        0x0 utilities\fsl_io.o
 .bss           0x0000000000000000        0x0 utilities\fsl_io.o
 .text.IO_Deinit
                0x0000000000000000       0x6a utilities\fsl_io.o
 .text.IO_WaitIdle
                0x0000000000000000       0x4c utilities\fsl_io.o
 .text          0x0000000000000000        0x0 utilities\fsl_log.o
 .data          0x0000000000000000        0x0 utilities\fsl_log.o
 .bss           0x0000000000000000        0x0 utilities\fsl_log.o
 .text.LOG_Deinit
                0x0000000000000000       0x1a utilities\fsl_log.o
 .text.LOG_WaitIdle
                0x0000000000000000       0x1c utilities\fsl_log.o
 .text.LOG_ReadLine
                0x0000000000000000       0xf6 utilities\fsl_log.o
 .text.LOG_ReadCharacter
                0x0000000000000000       0x66 utilities\fsl_log.o
 .text.LOG_ReadOneCharacter
                0x0000000000000000       0x30 utilities\fsl_log.o
 .rodata.__func__.4323
                0x0000000000000000        0xd utilities\fsl_log.o
 .rodata.__func__.4331
                0x0000000000000000       0x12 utilities\fsl_log.o
 .text          0x0000000000000000        0x0 utilities\fsl_str.o
 .data          0x0000000000000000        0x0 utilities\fsl_str.o
 .bss           0x0000000000000000        0x0 utilities\fsl_str.o
 .text.ScanIgnoreWhiteSpace
                0x0000000000000000       0x90 utilities\fsl_str.o
 .text.StrFormatScanf
                0x0000000000000000      0x6fc utilities\fsl_str.o
 .rodata.StrFormatScanf
                0x0000000000000000      0x124 utilities\fsl_str.o
 .data          0x0000000000000000        0x0 c:/vega/toolchain/riscv32-unknown-elf-gcc/bin/../lib/gcc/riscv32-unknown-elf/7.1.1/../../../../riscv32-unknown-elf/lib\libc.a(lib_a-init.o)
 .bss           0x0000000000000000        0x0 c:/vega/toolchain/riscv32-unknown-elf-gcc/bin/../lib/gcc/riscv32-unknown-elf/7.1.1/../../../../riscv32-unknown-elf/lib\libc.a(lib_a-init.o)
 .data          0x0000000000000000        0x0 c:/vega/toolchain/riscv32-unknown-elf-gcc/bin/../lib/gcc/riscv32-unknown-elf/7.1.1/../../../../riscv32-unknown-elf/lib\libc.a(lib_a-memcpy.o)
 .bss           0x0000000000000000        0x0 c:/vega/toolchain/riscv32-unknown-elf-gcc/bin/../lib/gcc/riscv32-unknown-elf/7.1.1/../../../../riscv32-unknown-elf/lib\libc.a(lib_a-memcpy.o)
 .data          0x0000000000000000        0x0 c:/vega/toolchain/riscv32-unknown-elf-gcc/bin/../lib/gcc/riscv32-unknown-elf/7.1.1/../../../../riscv32-unknown-elf/lib\libc.a(lib_a-memset.o)
 .bss           0x0000000000000000        0x0 c:/vega/toolchain/riscv32-unknown-elf-gcc/bin/../lib/gcc/riscv32-unknown-elf/7.1.1/../../../../riscv32-unknown-elf/lib\libc.a(lib_a-memset.o)
 .data          0x0000000000000000        0x0 c:/vega/toolchain/riscv32-unknown-elf-gcc/bin/../lib/gcc/riscv32-unknown-elf/7.1.1/../../../../riscv32-unknown-elf/lib\libc.a(lib_a-strlen.o)
 .bss           0x0000000000000000        0x0 c:/vega/toolchain/riscv32-unknown-elf-gcc/bin/../lib/gcc/riscv32-unknown-elf/7.1.1/../../../../riscv32-unknown-elf/lib\libc.a(lib_a-strlen.o)

Memory Configuration

Name             Origin             Length             Attributes
m_vector         0x000000000103ff00 0x0000000000000100 xr
m_text           0x0000000001000000 0x000000000003ff00 xr
m_data           0x0000000009000000 0x0000000000020000 rw
rpmsg_sh_mem     0x000000002002e800 0x0000000000001800 rw
m_usb_sram       0x0000000048010000 0x0000000000000800 rw
*default*        0x0000000000000000 0xffffffffffffffff

Linker script and memory map

START GROUP
LOAD board\board.o
LOAD board\clock_config.o
LOAD board\pin_mux.o
LOAD drivers\freertos\fsl_lpuart_freertos.o
LOAD drivers\fsl_clock.o
LOAD drivers\fsl_common.o
LOAD drivers\fsl_gpio.o
LOAD drivers\fsl_intmux.o
LOAD drivers\fsl_lpuart.o
LOAD drivers\fsl_msmc.o
LOAD freertos\croutine.o
LOAD freertos\event_groups.o
LOAD freertos\heap_4.o
LOAD freertos\list.o
LOAD freertos\portable\port.o
LOAD freertos\portable\portASM.o
LOAD freertos\queue.o
LOAD freertos\tasks.o
LOAD freertos\timers.o
LOAD source\freertos_lpuart.o
LOAD startup\startup_RV32M1_zero_riscy.o
LOAD startup\system_RV32M1_zero_riscy.o
LOAD utilities\fsl_debug_console.o
LOAD utilities\fsl_io.o
LOAD utilities\fsl_log.o
LOAD utilities\fsl_str.o
LOAD c:/vega/toolchain/riscv32-unknown-elf-gcc/bin/../lib/gcc/riscv32-unknown-elf/7.1.1/../../../../riscv32-unknown-elf/lib\libnosys.a
LOAD c:/vega/toolchain/riscv32-unknown-elf-gcc/bin/../lib/gcc/riscv32-unknown-elf/7.1.1\libgcc.a
LOAD c:/vega/toolchain/riscv32-unknown-elf-gcc/bin/../lib/gcc/riscv32-unknown-elf/7.1.1/../../../../riscv32-unknown-elf/lib\libc.a
LOAD c:/vega/toolchain/riscv32-unknown-elf-gcc/bin/../lib/gcc/riscv32-unknown-elf/7.1.1/../../../../riscv32-unknown-elf/lib\libm.a
LOAD c:/vega/toolchain/riscv32-unknown-elf-gcc/bin/../lib/gcc/riscv32-unknown-elf/7.1.1/../../../../riscv32-unknown-elf/lib\libm.a
LOAD c:/vega/toolchain/riscv32-unknown-elf-gcc/bin/../lib/gcc/riscv32-unknown-elf/7.1.1/../../../../riscv32-unknown-elf/lib\libg.a
LOAD c:/vega/toolchain/riscv32-unknown-elf-gcc/bin/../lib/gcc/riscv32-unknown-elf/7.1.1\libgcc.a
LOAD c:/vega/toolchain/riscv32-unknown-elf-gcc/bin/../lib/gcc/riscv32-unknown-elf/7.1.1/../../../../riscv32-unknown-elf/lib\libnosys.a
END GROUP
                0x0000000000000400                HEAP_SIZE = DEFINED (__heap_size__)?__heap_size__:0x400
                0x0000000000000800                STACK_SIZE = DEFINED (__stack_size__)?__stack_size__:0x800

.noinit_rpmsg_sh_mem
                0x000000002002e800        0x0
 *(.noinit.$rpmsg_sh_mem*)
                0x000000002002e800                . = ALIGN (0x4)

.vectors        0x000000000103ff00       0x90
                0x000000000103ff00                __VECTOR_TABLE = .
 *(.vectors)
 .vectors       0x000000000103ff00       0x90 startup\startup_RV32M1_zero_riscy.o

.text           0x0000000001000000     0x8a21
                0x0000000001000000                . = ALIGN (0x4)
 *(.startup)
 .startup       0x0000000001000000      0x192 startup\startup_RV32M1_zero_riscy.o
                0x0000000001000026                _fini
                0x0000000001000026                _init
                0x000000000100013e                IllegalInstruction_Handler
                0x000000000100016e                LSU_Handler
                0x0000000001000186                IllegalInstruction_HandlerFunc
                0x000000000100018a                Ecall_HandlerFunc
                0x000000000100018e                LSU_HandlerFunc
                0x0000000001000194                . = ALIGN (0x4)
 *fill*         0x0000000001000192        0x2 
                0x0000000001000194                __user_vector = .
 *(user_vectors)
 user_vectors   0x0000000001000194      0x100 startup\system_RV32M1_zero_riscy.o
                0x0000000001000194                isrTable
 *(.text)
 .text          0x0000000001000294      0x360 freertos\portable\portASM.o
                0x0000000001000294                xPortStartFirstTask
                0x000000000100031e                Ecall_Handler
                0x000000000100046a                IRQ_Handler
 .text          0x00000000010005f4       0x68 c:/vega/toolchain/riscv32-unknown-elf-gcc/bin/../lib/gcc/riscv32-unknown-elf/7.1.1/../../../../riscv32-unknown-elf/lib\libc.a(lib_a-init.o)
                0x00000000010005f4                __libc_init_array
 .text          0x000000000100065c       0xbe c:/vega/toolchain/riscv32-unknown-elf-gcc/bin/../lib/gcc/riscv32-unknown-elf/7.1.1/../../../../riscv32-unknown-elf/lib\libc.a(lib_a-memcpy.o)
                0x000000000100065c                memcpy
 .text          0x000000000100071a       0xa8 c:/vega/toolchain/riscv32-unknown-elf-gcc/bin/../lib/gcc/riscv32-unknown-elf/7.1.1/../../../../riscv32-unknown-elf/lib\libc.a(lib_a-memset.o)
                0x000000000100071a                memset
 .text          0x00000000010007c2       0x12 c:/vega/toolchain/riscv32-unknown-elf-gcc/bin/../lib/gcc/riscv32-unknown-elf/7.1.1/../../../../riscv32-unknown-elf/lib\libc.a(lib_a-strlen.o)
                0x00000000010007c2                strlen
 *(.text*)
 .text.CLOCK_SetIpSrc
                0x00000000010007d4       0xb4 board\board.o
 .text.BOARD_InitDebugConsole
                0x0000000001000888       0x42 board\board.o
                0x0000000001000888                BOARD_InitDebugConsole
 .text.CLOCK_SetRunModeSysClkConfig
                0x00000000010008ca       0x48 board\clock_config.o
 .text.CLOCK_GetCurSysClkConfig
                0x0000000001000912       0x48 board\clock_config.o
 .text.CLOCK_CONFIG_FircSafeConfig
                0x000000000100095a       0x96 board\clock_config.o
 .text.BOARD_BootClockRUN
                0x00000000010009f0       0x66 board\clock_config.o
                0x00000000010009f0                BOARD_BootClockRUN
 .text.CLOCK_EnableClock
                0x0000000001000a56       0x52 board\pin_mux.o
 .text.PORT_SetPinMux
                0x0000000001000aa8       0x46 board\pin_mux.o
 .text.BOARD_InitPins
                0x0000000001000aee       0x30 board\pin_mux.o
                0x0000000001000aee                BOARD_InitPins
 .text.LPUART_EnableTx
                0x0000000001000b1e       0x46 drivers\freertos\fsl_lpuart_freertos.o
 .text.LPUART_EnableRx
                0x0000000001000b64       0x46 drivers\freertos\fsl_lpuart_freertos.o
 .text.LPUART_RTOS_Callback
                0x0000000001000baa       0xe4 drivers\freertos\fsl_lpuart_freertos.o
 .text.LPUART_RTOS_Init
                0x0000000001000c8e      0x1bc drivers\freertos\fsl_lpuart_freertos.o
                0x0000000001000c8e                LPUART_RTOS_Init
 .text.LPUART_RTOS_Deinit
                0x0000000001000e4a       0x88 drivers\freertos\fsl_lpuart_freertos.o
                0x0000000001000e4a                LPUART_RTOS_Deinit
 .text.LPUART_RTOS_Send
                0x0000000001000ed2       0xd2 drivers\freertos\fsl_lpuart_freertos.o
                0x0000000001000ed2                LPUART_RTOS_Send
 .text.LPUART_RTOS_Receive
                0x0000000001000fa4      0x178 drivers\freertos\fsl_lpuart_freertos.o
                0x0000000001000fa4                LPUART_RTOS_Receive
 .text.CLOCK_GetIpFreq
                0x000000000100111c      0x12e drivers\fsl_clock.o
                0x000000000100111c                CLOCK_GetIpFreq
 .text.CLOCK_GetSysOscFreq
                0x000000000100124a       0x56 drivers\fsl_clock.o
                0x000000000100124a                CLOCK_GetSysOscFreq
 .text.CLOCK_GetSysOscAsyncFreq
                0x00000000010012a0       0x8c drivers\fsl_clock.o
                0x00000000010012a0                CLOCK_GetSysOscAsyncFreq
 .text.CLOCK_InitSirc
                0x000000000100132c       0xb6 drivers\fsl_clock.o
                0x000000000100132c                CLOCK_InitSirc
 .text.CLOCK_DeinitSirc
                0x00000000010013e2       0x48 drivers\fsl_clock.o
                0x00000000010013e2                CLOCK_DeinitSirc
 .text.CLOCK_GetSircFreq
                0x000000000100142a       0x3a drivers\fsl_clock.o
                0x000000000100142a                CLOCK_GetSircFreq
 .text.CLOCK_GetSircAsyncFreq
                0x0000000001001464       0x8c drivers\fsl_clock.o
                0x0000000001001464                CLOCK_GetSircAsyncFreq
 .text.CLOCK_InitFirc
                0x00000000010014f0      0x150 drivers\fsl_clock.o
                0x00000000010014f0                CLOCK_InitFirc
 .text.CLOCK_DeinitFirc
                0x0000000001001640       0x4c drivers\fsl_clock.o
                0x0000000001001640                CLOCK_DeinitFirc
 .text.CLOCK_GetFircFreq
                0x000000000100168c       0x3c drivers\fsl_clock.o
                0x000000000100168c                CLOCK_GetFircFreq
 .text.CLOCK_GetFircAsyncFreq
                0x00000000010016c8       0x8c drivers\fsl_clock.o
                0x00000000010016c8                CLOCK_GetFircAsyncFreq
 .text.CLOCK_InitLpFll
                0x0000000001001754      0x17c drivers\fsl_clock.o
                0x0000000001001754                CLOCK_InitLpFll
 .text.CLOCK_DeinitLpFll
                0x00000000010018d0       0x4c drivers\fsl_clock.o
                0x00000000010018d0                CLOCK_DeinitLpFll
 .text.CLOCK_GetLpFllFreq
                0x000000000100191c       0x3c drivers\fsl_clock.o
                0x000000000100191c                CLOCK_GetLpFllFreq
 .text.CLOCK_GetLpFllAsyncFreq
                0x0000000001001958       0x70 drivers\fsl_clock.o
                0x0000000001001958                CLOCK_GetLpFllAsyncFreq
 .text.__assert_func
                0x00000000010019c8       0x38 drivers\fsl_common.o
                0x00000000010019c8                __assert_func
 .text.CLOCK_EnableClock
                0x0000000001001a00       0x50 drivers\fsl_intmux.o
 .text.EnableIRQ
                0x0000000001001a50       0x52 drivers\fsl_intmux.o
 .text.INTMUX_ResetChannel
                0x0000000001001aa2       0x62 drivers\fsl_intmux.o
 .text.INTMUX_GetInstance
                0x0000000001001b04       0x7a drivers\fsl_intmux.o
 .text.INTMUX_CommonIRQHandler
                0x0000000001001b7e       0x54 drivers\fsl_intmux.o
 .text.INTMUX_Init
                0x0000000001001bd2       0x7a drivers\fsl_intmux.o
                0x0000000001001bd2                INTMUX_Init
 .text.INTMUX1_0_DriverIRQHandler
                0x0000000001001c4c       0x1a drivers\fsl_intmux.o
                0x0000000001001c4c                INTMUX1_0_DriverIRQHandler
 .text.INTMUX1_1_DriverIRQHandler
                0x0000000001001c66       0x1a drivers\fsl_intmux.o
                0x0000000001001c66                INTMUX1_1_DriverIRQHandler
 .text.INTMUX1_2_DriverIRQHandler
                0x0000000001001c80       0x1a drivers\fsl_intmux.o
                0x0000000001001c80                INTMUX1_2_DriverIRQHandler
 .text.INTMUX1_3_DriverIRQHandler
                0x0000000001001c9a       0x1a drivers\fsl_intmux.o
                0x0000000001001c9a                INTMUX1_3_DriverIRQHandler
 .text.INTMUX1_4_DriverIRQHandler
                0x0000000001001cb4       0x1a drivers\fsl_intmux.o
                0x0000000001001cb4                INTMUX1_4_DriverIRQHandler
 .text.INTMUX1_5_DriverIRQHandler
                0x0000000001001cce       0x1a drivers\fsl_intmux.o
                0x0000000001001cce                INTMUX1_5_DriverIRQHandler
 .text.INTMUX1_6_DriverIRQHandler
                0x0000000001001ce8       0x1a drivers\fsl_intmux.o
                0x0000000001001ce8                INTMUX1_6_DriverIRQHandler
 .text.INTMUX1_7_DriverIRQHandler
                0x0000000001001d02       0x1a drivers\fsl_intmux.o
                0x0000000001001d02                INTMUX1_7_DriverIRQHandler
 .text.CLOCK_EnableClock
                0x0000000001001d1c       0x50 drivers\fsl_lpuart.o
 .text.CLOCK_DisableClock
                0x0000000001001d6c       0x52 drivers\fsl_lpuart.o
 .text.EnableIRQ
                0x0000000001001dbe       0x52 drivers\fsl_lpuart.o
 .text.LPUART_SoftwareReset
                0x0000000001001e10       0x32 drivers\fsl_lpuart.o
 .text.LPUART_GetInstance
                0x0000000001001e42       0x7a drivers\fsl_lpuart.o
                0x0000000001001e42                LPUART_GetInstance
 .text.LPUART_TransferGetRxRingBufferLength
                0x0000000001001ebc       0xac drivers\fsl_lpuart.o
 .text.LPUART_TransferIsRxRingBufferFull
                0x0000000001001f68       0x66 drivers\fsl_lpuart.o
 .text.LPUART_WriteNonBlocking
                0x0000000001001fce       0x76 drivers\fsl_lpuart.o
 .text.LPUART_ReadNonBlocking
                0x0000000001002044       0xea drivers\fsl_lpuart.o
 .text.LPUART_Init
                0x000000000100212e      0x498 drivers\fsl_lpuart.o
                0x000000000100212e                LPUART_Init
 .text.LPUART_Deinit
                0x00000000010025c6       0x98 drivers\fsl_lpuart.o
                0x00000000010025c6                LPUART_Deinit
 .text.LPUART_GetDefaultConfig
                0x000000000100265e       0xb8 drivers\fsl_lpuart.o
                0x000000000100265e                LPUART_GetDefaultConfig
 .text.LPUART_EnableInterrupts
                0x0000000001002716       0x6e drivers\fsl_lpuart.o
                0x0000000001002716                LPUART_EnableInterrupts
 .text.LPUART_DisableInterrupts
                0x0000000001002784       0x7a drivers\fsl_lpuart.o
                0x0000000001002784                LPUART_DisableInterrupts
 .text.LPUART_GetStatusFlags
                0x00000000010027fe       0x36 drivers\fsl_lpuart.o
                0x00000000010027fe                LPUART_GetStatusFlags
 .text.LPUART_ClearStatusFlags
                0x0000000001002834       0xf6 drivers\fsl_lpuart.o
                0x0000000001002834                LPUART_ClearStatusFlags
 .text.LPUART_WriteBlocking
                0x000000000100292a       0x7a drivers\fsl_lpuart.o
                0x000000000100292a                LPUART_WriteBlocking
 .text.LPUART_ReadBlocking
                0x00000000010029a4      0x166 drivers\fsl_lpuart.o
                0x00000000010029a4                LPUART_ReadBlocking
 .text.LPUART_TransferCreateHandle
                0x0000000001002b0a      0x11c drivers\fsl_lpuart.o
                0x0000000001002b0a                LPUART_TransferCreateHandle
 .text.LPUART_TransferStartRingBuffer
                0x0000000001002c26       0x9e drivers\fsl_lpuart.o
                0x0000000001002c26                LPUART_TransferStartRingBuffer
 .text.LPUART_TransferSendNonBlocking
                0x0000000001002cc4      0x118 drivers\fsl_lpuart.o
                0x0000000001002cc4                LPUART_TransferSendNonBlocking
 .text.LPUART_TransferReceiveNonBlocking
                0x0000000001002ddc      0x288 drivers\fsl_lpuart.o
                0x0000000001002ddc                LPUART_TransferReceiveNonBlocking
 .text.LPUART_TransferAbortReceive
                0x0000000001003064       0x66 drivers\fsl_lpuart.o
                0x0000000001003064                LPUART_TransferAbortReceive
 .text.LPUART_TransferHandleIRQ
                0x00000000010030ca      0x4fa drivers\fsl_lpuart.o
                0x00000000010030ca                LPUART_TransferHandleIRQ
 .text.LPUART0_DriverIRQHandler
                0x00000000010035c4       0x2a drivers\fsl_lpuart.o
                0x00000000010035c4                LPUART0_DriverIRQHandler
 .text.LPUART1_DriverIRQHandler
                0x00000000010035ee       0x2c drivers\fsl_lpuart.o
                0x00000000010035ee                LPUART1_DriverIRQHandler
 .text.LPUART2_DriverIRQHandler
                0x000000000100361a       0x2c drivers\fsl_lpuart.o
                0x000000000100361a                LPUART2_DriverIRQHandler
 .text.LPUART3_DriverIRQHandler
                0x0000000001003646       0x2c drivers\fsl_lpuart.o
                0x0000000001003646                LPUART3_DriverIRQHandler
 .text.xEventGroupCreate
                0x0000000001003672       0x38 freertos\event_groups.o
                0x0000000001003672                xEventGroupCreate
 .text.xEventGroupWaitBits
                0x00000000010036aa      0x1aa freertos\event_groups.o
                0x00000000010036aa                xEventGroupWaitBits
 .text.xEventGroupClearBits
                0x0000000001003854       0x6c freertos\event_groups.o
                0x0000000001003854                xEventGroupClearBits
 .text.xEventGroupSetBits
                0x00000000010038c0      0x15a freertos\event_groups.o
                0x00000000010038c0                xEventGroupSetBits
 .text.vEventGroupDelete
                0x0000000001003a1a       0x66 freertos\event_groups.o
                0x0000000001003a1a                vEventGroupDelete
 .text.vEventGroupSetBitsCallback
                0x0000000001003a80       0x24 freertos\event_groups.o
                0x0000000001003a80                vEventGroupSetBitsCallback
 .text.prvTestWaitCondition
                0x0000000001003aa4       0x54 freertos\event_groups.o
 .text.xEventGroupSetBitsFromISR
                0x0000000001003af8       0x3e freertos\event_groups.o
                0x0000000001003af8                xEventGroupSetBitsFromISR
 .text.pvPortMalloc
                0x0000000001003b36      0x17a freertos\heap_4.o
                0x0000000001003b36                pvPortMalloc
 .text.vPortFree
                0x0000000001003cb0       0xb8 freertos\heap_4.o
                0x0000000001003cb0                vPortFree
 .text.prvHeapInit
                0x0000000001003d68       0xd4 freertos\heap_4.o
 .text.prvInsertBlockIntoFreeList
                0x0000000001003e3c       0xf8 freertos\heap_4.o
 .text.vListInitialise
                0x0000000001003f34       0x4c freertos\list.o
                0x0000000001003f34                vListInitialise
 .text.vListInitialiseItem
                0x0000000001003f80       0x1a freertos\list.o
                0x0000000001003f80                vListInitialiseItem
 .text.vListInsertEnd
                0x0000000001003f9a       0x66 freertos\list.o
                0x0000000001003f9a                vListInsertEnd
 .text.vListInsert
                0x0000000001004000       0xa2 freertos\list.o
                0x0000000001004000                vListInsert
 .text.uxListRemove
                0x00000000010040a2       0x70 freertos\list.o
                0x00000000010040a2                uxListRemove
 .text.CLOCK_SetIpSrc
                0x0000000001004112       0xb4 freertos\portable\port.o
 .text.portCPU_IRQ_DISABLE
                0x00000000010041c6       0x1a freertos\portable\port.o
 .text.portCPU_IRQ_ENABLE
                0x00000000010041e0       0x1a freertos\portable\port.o
 .text.portYIELD_FROM_ISR
                0x00000000010041fa       0x22 freertos\portable\port.o
                0x00000000010041fa                portYIELD_FROM_ISR
 .text.portYIELD
                0x000000000100421c       0x28 freertos\portable\port.o
                0x000000000100421c                portYIELD
 .text.prvTaskExitError
                0x0000000001004244       0x1e freertos\portable\port.o
 .text.pxPortInitialiseStack
                0x0000000001004262       0xc6 freertos\portable\port.o
                0x0000000001004262                pxPortInitialiseStack
 .text.xPortStartScheduler
                0x0000000001004328       0x38 freertos\portable\port.o
                0x0000000001004328                xPortStartScheduler
 .text.vPortEnterCritical
                0x0000000001004360       0x44 freertos\portable\port.o
                0x0000000001004360                vPortEnterCritical
 .text.vPortExitCritical
                0x00000000010043a4       0x50 freertos\portable\port.o
                0x00000000010043a4                vPortExitCritical
 .text.vPortSetInterruptMask
                0x00000000010043f4       0x3c freertos\portable\port.o
                0x00000000010043f4                vPortSetInterruptMask
 .text.vPortClearInterruptMask
                0x0000000001004430       0x30 freertos\portable\port.o
                0x0000000001004430                vPortClearInterruptMask
 .text.LPIT1_IRQHandler
                0x0000000001004460       0x2e freertos\portable\port.o
                0x0000000001004460                LPIT1_IRQHandler
 .text.xQueueGenericReset
                0x000000000100448e       0xd6 freertos\queue.o
                0x000000000100448e                xQueueGenericReset
 .text.xQueueGenericCreate
                0x0000000001004564       0x86 freertos\queue.o
                0x0000000001004564                xQueueGenericCreate
 .text.prvInitialiseNewQueue
                0x00000000010045ea       0x6c freertos\queue.o
 .text.prvInitialiseMutex
                0x0000000001004656       0x40 freertos\queue.o
 .text.xQueueCreateMutex
                0x0000000001004696       0x40 freertos\queue.o
                0x0000000001004696                xQueueCreateMutex
 .text.xQueueGenericSend
                0x00000000010046d6      0x1ba freertos\queue.o
                0x00000000010046d6                xQueueGenericSend
 .text.xQueueGenericSendFromISR
                0x0000000001004890      0x116 freertos\queue.o
                0x0000000001004890                xQueueGenericSendFromISR
 .text.xQueueGenericReceive
                0x00000000010049a6      0x204 freertos\queue.o
                0x00000000010049a6                xQueueGenericReceive
 .text.vQueueDelete
                0x0000000001004baa       0x38 freertos\queue.o
                0x0000000001004baa                vQueueDelete
 .text.prvCopyDataToQueue
                0x0000000001004be2      0x12a freertos\queue.o
 .text.prvCopyDataFromQueue
                0x0000000001004d0c       0x6a freertos\queue.o
 .text.prvUnlockQueue
                0x0000000001004d76       0xc4 freertos\queue.o
 .text.prvIsQueueEmpty
                0x0000000001004e3a       0x36 freertos\queue.o
 .text.prvIsQueueFull
                0x0000000001004e70       0x3e freertos\queue.o
 .text.vQueueAddToRegistry
                0x0000000001004eae       0x72 freertos\queue.o
                0x0000000001004eae                vQueueAddToRegistry
 .text.vQueueUnregisterQueue
                0x0000000001004f20       0x70 freertos\queue.o
                0x0000000001004f20                vQueueUnregisterQueue
 .text.vQueueWaitForMessageRestricted
                0x0000000001004f90       0x8c freertos\queue.o
                0x0000000001004f90                vQueueWaitForMessageRestricted
 .text.xTaskCreate
                0x000000000100501c       0xac freertos\tasks.o
                0x000000000100501c                xTaskCreate
 .text.prvInitialiseNewTask
                0x00000000010050c8      0x18a freertos\tasks.o
 .text.prvAddNewTaskToReadyList
                0x0000000001005252      0x110 freertos\tasks.o
 .text.vTaskSuspend
                0x0000000001005362       0xd0 freertos\tasks.o
                0x0000000001005362                vTaskSuspend
 .text.vTaskStartScheduler
                0x0000000001005432       0x8c freertos\tasks.o
                0x0000000001005432                vTaskStartScheduler
 .text.vTaskSuspendAll
                0x00000000010054be       0x22 freertos\tasks.o
                0x00000000010054be                vTaskSuspendAll
 .text.xTaskResumeAll
                0x00000000010054e0      0x152 freertos\tasks.o
                0x00000000010054e0                xTaskResumeAll
 .text.xTaskGetTickCount
                0x0000000001005632       0x2a freertos\tasks.o
                0x0000000001005632                xTaskGetTickCount
 .text.xTaskIncrementTick
                0x000000000100565c      0x1a2 freertos\tasks.o
                0x000000000100565c                xTaskIncrementTick
 .text.vTaskSwitchContext
                0x00000000010057fe       0xd0 freertos\tasks.o
                0x00000000010057fe                vTaskSwitchContext
 .text.vTaskPlaceOnEventList
                0x00000000010058ce       0x44 freertos\tasks.o
                0x00000000010058ce                vTaskPlaceOnEventList
 .text.vTaskPlaceOnUnorderedEventList
                0x0000000001005912       0x6c freertos\tasks.o
                0x0000000001005912                vTaskPlaceOnUnorderedEventList
 .text.vTaskPlaceOnEventListRestricted
                0x000000000100597e       0x54 freertos\tasks.o
                0x000000000100597e                vTaskPlaceOnEventListRestricted
 .text.xTaskRemoveFromEventList
                0x00000000010059d2       0xda freertos\tasks.o
                0x00000000010059d2                xTaskRemoveFromEventList
 .text.xTaskRemoveFromUnorderedEventList
                0x0000000001005aac       0xd8 freertos\tasks.o
                0x0000000001005aac                xTaskRemoveFromUnorderedEventList
 .text.vTaskSetTimeOutState
                0x0000000001005b84       0x3e freertos\tasks.o
                0x0000000001005b84                vTaskSetTimeOutState
 .text.xTaskCheckForTimeOut
                0x0000000001005bc2       0xc8 freertos\tasks.o
                0x0000000001005bc2                xTaskCheckForTimeOut
 .text.vTaskMissedYield
                0x0000000001005c8a       0x18 freertos\tasks.o
                0x0000000001005c8a                vTaskMissedYield
 .text.prvIdleTask
                0x0000000001005ca2       0x22 freertos\tasks.o
 .text.prvInitialiseTaskLists
                0x0000000001005cc4       0xa4 freertos\tasks.o
 .text.prvCheckTasksWaitingTermination
                0x0000000001005d68       0x92 freertos\tasks.o
 .text.prvDeleteTCB
                0x0000000001005dfa       0x2a freertos\tasks.o
 .text.prvResetNextTaskUnblockTime
                0x0000000001005e24       0x4c freertos\tasks.o
 .text.xTaskGetSchedulerState
                0x0000000001005e70       0x3a freertos\tasks.o
                0x0000000001005e70                xTaskGetSchedulerState
 .text.vTaskPriorityInherit
                0x0000000001005eaa       0xf4 freertos\tasks.o
                0x0000000001005eaa                vTaskPriorityInherit
 .text.xTaskPriorityDisinherit
                0x0000000001005f9e       0xec freertos\tasks.o
                0x0000000001005f9e                xTaskPriorityDisinherit
 .text.uxTaskResetEventItemValue
                0x000000000100608a       0x3a freertos\tasks.o
                0x000000000100608a                uxTaskResetEventItemValue
 .text.pvTaskIncrementMutexHeldCount
                0x00000000010060c4       0x2e freertos\tasks.o
                0x00000000010060c4                pvTaskIncrementMutexHeldCount
 .text.prvAddCurrentTaskToDelayedList
                0x00000000010060f2       0xda freertos\tasks.o
 .text.xTimerCreateTimerTask
                0x00000000010061cc       0x5a freertos\timers.o
                0x00000000010061cc                xTimerCreateTimerTask
 .text.xTimerGenericCommand
                0x0000000001006226       0xce freertos\timers.o
                0x0000000001006226                xTimerGenericCommand
 .text.prvProcessExpiredTimer
                0x00000000010062f4       0x90 freertos\timers.o
 .text.prvTimerTask
                0x0000000001006384       0x28 freertos\timers.o
 .text.prvProcessTimerOrBlockTask
                0x00000000010063ac       0xa2 freertos\timers.o
 .text.prvGetNextExpireTime
                0x000000000100644e       0x4e freertos\timers.o
 .text.prvSampleTimeNow
                0x000000000100649c       0x52 freertos\timers.o
 .text.prvInsertTimerInActiveList
                0x00000000010064ee       0xb4 freertos\timers.o
 .text.prvProcessReceivedCommands
                0x00000000010065a2      0x162 freertos\timers.o
 .text.prvSwitchTimerLists
                0x0000000001006704       0xf6 freertos\timers.o
 .text.prvCheckForValidListAndQueue
                0x00000000010067fa       0x90 freertos\timers.o
 .text.xTimerPendFunctionCallFromISR
                0x000000000100688a       0x62 freertos\timers.o
                0x000000000100688a                xTimerPendFunctionCallFromISR
 .text.INTMUX_EnableInterrupt
                0x00000000010068ec       0x9c source\freertos_lpuart.o
 .text.main     0x0000000001006988       0x6c source\freertos_lpuart.o
                0x0000000001006988                main
 .text.uart_rx_irq_handler
                0x00000000010069f4      0x13a source\freertos_lpuart.o
                0x00000000010069f4                uart_rx_irq_handler
 .text.uart_task
                0x0000000001006b2e      0x184 source\freertos_lpuart.o
 .text.CLOCK_EnableClock
                0x0000000001006cb2       0x52 startup\system_RV32M1_zero_riscy.o
 .text.EnableIRQ
                0x0000000001006d04       0x52 startup\system_RV32M1_zero_riscy.o
 .text.copy_section
                0x0000000001006d56       0x48 startup\system_RV32M1_zero_riscy.o
 .text.zero_section
                0x0000000001006d9e       0x3e startup\system_RV32M1_zero_riscy.o
 .text.DMA1_04_IRQHandler
                0x0000000001006ddc       0x16 startup\system_RV32M1_zero_riscy.o
                0x0000000001006ddc                DMA1_04_IRQHandler
 .text.DMA1_15_IRQHandler
                0x0000000001006df2       0x16 startup\system_RV32M1_zero_riscy.o
                0x0000000001006df2                DMA1_15_IRQHandler
 .text.DMA1_26_IRQHandler
                0x0000000001006e08       0x16 startup\system_RV32M1_zero_riscy.o
                0x0000000001006e08                DMA1_26_IRQHandler
 .text.DMA1_37_IRQHandler
                0x0000000001006e1e       0x16 startup\system_RV32M1_zero_riscy.o
                0x0000000001006e1e                DMA1_37_IRQHandler
 .text.DMA1_Error_IRQHandler
                0x0000000001006e34       0x16 startup\system_RV32M1_zero_riscy.o
                0x0000000001006e34                DMA1_Error_IRQHandler
 .text.LPI2C3_IRQHandler
                0x0000000001006e4a       0x16 startup\system_RV32M1_zero_riscy.o
                0x0000000001006e4a                LPI2C3_IRQHandler
 .text.LPSPI3_IRQHandler
                0x0000000001006e60       0x16 startup\system_RV32M1_zero_riscy.o
                0x0000000001006e60                LPSPI3_IRQHandler
 .text.LPUART3_IRQHandler
                0x0000000001006e76       0x16 startup\system_RV32M1_zero_riscy.o
                0x0000000001006e76                LPUART3_IRQHandler
 .text.INTMUX1_0_IRQHandler
                0x0000000001006e8c       0x16 startup\system_RV32M1_zero_riscy.o
                0x0000000001006e8c                INTMUX1_0_IRQHandler
 .text.INTMUX1_1_IRQHandler
                0x0000000001006ea2       0x16 startup\system_RV32M1_zero_riscy.o
                0x0000000001006ea2                INTMUX1_1_IRQHandler
 .text.INTMUX1_2_IRQHandler
                0x0000000001006eb8       0x16 startup\system_RV32M1_zero_riscy.o
                0x0000000001006eb8                INTMUX1_2_IRQHandler
 .text.INTMUX1_3_IRQHandler
                0x0000000001006ece       0x16 startup\system_RV32M1_zero_riscy.o
                0x0000000001006ece                INTMUX1_3_IRQHandler
 .text.INTMUX1_4_IRQHandler
                0x0000000001006ee4       0x16 startup\system_RV32M1_zero_riscy.o
                0x0000000001006ee4                INTMUX1_4_IRQHandler
 .text.INTMUX1_5_IRQHandler
                0x0000000001006efa       0x16 startup\system_RV32M1_zero_riscy.o
                0x0000000001006efa                INTMUX1_5_IRQHandler
 .text.INTMUX1_6_IRQHandler
                0x0000000001006f10       0x16 startup\system_RV32M1_zero_riscy.o
                0x0000000001006f10                INTMUX1_6_IRQHandler
 .text.INTMUX1_7_IRQHandler
                0x0000000001006f26       0x16 startup\system_RV32M1_zero_riscy.o
                0x0000000001006f26                INTMUX1_7_IRQHandler
 .text.FLEXIO0_IRQHandler
                0x0000000001006f3c       0x16 startup\system_RV32M1_zero_riscy.o
                0x0000000001006f3c                FLEXIO0_IRQHandler
 .text.LPI2C0_IRQHandler
                0x0000000001006f52       0x16 startup\system_RV32M1_zero_riscy.o
                0x0000000001006f52                LPI2C0_IRQHandler
 .text.LPI2C1_IRQHandler
                0x0000000001006f68       0x16 startup\system_RV32M1_zero_riscy.o
                0x0000000001006f68                LPI2C1_IRQHandler
 .text.LPI2C2_IRQHandler
                0x0000000001006f7e       0x16 startup\system_RV32M1_zero_riscy.o
                0x0000000001006f7e                LPI2C2_IRQHandler
 .text.I2S0_IRQHandler
                0x0000000001006f94       0x16 startup\system_RV32M1_zero_riscy.o
                0x0000000001006f94                I2S0_IRQHandler
 .text.USDHC0_IRQHandler
                0x0000000001006faa       0x16 startup\system_RV32M1_zero_riscy.o
                0x0000000001006faa                USDHC0_IRQHandler
 .text.LPSPI0_IRQHandler
                0x0000000001006fc0       0x16 startup\system_RV32M1_zero_riscy.o
                0x0000000001006fc0                LPSPI0_IRQHandler
 .text.LPSPI1_IRQHandler
                0x0000000001006fd6       0x16 startup\system_RV32M1_zero_riscy.o
                0x0000000001006fd6                LPSPI1_IRQHandler
 .text.LPSPI2_IRQHandler
                0x0000000001006fec       0x16 startup\system_RV32M1_zero_riscy.o
                0x0000000001006fec                LPSPI2_IRQHandler
 .text.LPUART0_IRQHandler
                0x0000000001007002       0x16 startup\system_RV32M1_zero_riscy.o
                0x0000000001007002                LPUART0_IRQHandler
 .text.LPUART1_IRQHandler
                0x0000000001007018       0x16 startup\system_RV32M1_zero_riscy.o
                0x0000000001007018                LPUART1_IRQHandler
 .text.LPUART2_IRQHandler
                0x000000000100702e       0x16 startup\system_RV32M1_zero_riscy.o
                0x000000000100702e                LPUART2_IRQHandler
 .text.DefaultIRQHandler
                0x0000000001007044        0x8 startup\system_RV32M1_zero_riscy.o
                0x0000000001007044                LPSPI2_DriverIRQHandler
                0x0000000001007044                LPI2C0_DriverIRQHandler
                0x0000000001007044                I2S0_DriverIRQHandler
                0x0000000001007044                LPTMR2_IRQHandler
                0x0000000001007044                TPM0_IRQHandler
                0x0000000001007044                LPIT0_IRQHandler
                0x0000000001007044                LPCMP0_IRQHandler
                0x0000000001007044                LPI2C3_DriverIRQHandler
                0x0000000001007044                MUB_IRQHandler
                0x0000000001007044                ADC0_IRQHandler
                0x0000000001007044                FLEXIO0_DriverIRQHandler
                0x0000000001007044                EMVSIM0_IRQHandler
                0x0000000001007044                LPCMP1_IRQHandler
                0x0000000001007044                WDOG1_IRQHandler
                0x0000000001007044                FTFE_Command_Complete_IRQHandler
                0x0000000001007044                PORTD_IRQHandler
                0x0000000001007044                PORTB_IRQHandler
                0x0000000001007044                USDHC0_DriverIRQHandler
                0x0000000001007044                LPDAC0_IRQHandler
                0x0000000001007044                TPM2_IRQHandler
                0x0000000001007044                RTC_IRQHandler
                0x0000000001007044                DMA1_Error_DriverIRQHandler
                0x0000000001007044                EWM_IRQHandler
                0x0000000001007044                TPM3_IRQHandler
                0x0000000001007044                DMA1_15_DriverIRQHandler
                0x0000000001007044                CTI1_IRQHandler
                0x0000000001007044                RF0_0_IRQHandler
                0x0000000001007044                LPSPI0_DriverIRQHandler
                0x0000000001007044                DMA1_37_DriverIRQHandler
                0x0000000001007044                USB0_IRQHandler
                0x0000000001007044                DMA1_26_DriverIRQHandler
                0x0000000001007044                FTFE_Read_Collision_IRQHandler
                0x0000000001007044                LPI2C1_DriverIRQHandler
                0x0000000001007044                LPSPI1_DriverIRQHandler
                0x0000000001007044                SCG_IRQHandler
                0x0000000001007044                DMA1_04_DriverIRQHandler
                0x0000000001007044                TPM1_IRQHandler
                0x0000000001007044                RF0_1_IRQHandler
                0x0000000001007044                CAU3_Security_Violation_IRQHandler
                0x0000000001007044                PORTA_IRQHandler
                0x0000000001007044                CMC1_IRQHandler
                0x0000000001007044                LLWU1_IRQHandler
                0x0000000001007044                CAU3_Task_Complete_IRQHandler
                0x0000000001007044                PORTE_IRQHandler
                0x0000000001007044                LPTMR0_IRQHandler
                0x0000000001007044                SPM_IRQHandler
                0x0000000001007044                LPSPI3_DriverIRQHandler
                0x0000000001007044                LPI2C2_DriverIRQHandler
                0x0000000001007044                LPTMR1_IRQHandler
                0x0000000001007044                TRNG_IRQHandler
                0x0000000001007044                PORTC_IRQHandler
 .text.SystemInit
                0x000000000100704c       0xaa startup\system_RV32M1_zero_riscy.o
                0x000000000100704c                SystemInit
 .text.SystemInitHook
                0x00000000010070f6        0xe startup\system_RV32M1_zero_riscy.o
                0x00000000010070f6                SystemInitHook
 .text.SystemIrqHandler
                0x0000000001007104       0x82 startup\system_RV32M1_zero_riscy.o
                0x0000000001007104                SystemIrqHandler
 .text.SystemSetupSystick
                0x0000000001007186       0x9e startup\system_RV32M1_zero_riscy.o
                0x0000000001007186                SystemSetupSystick
 .text.SystemClearSystickFlag
                0x0000000001007224       0x16 startup\system_RV32M1_zero_riscy.o
                0x0000000001007224                SystemClearSystickFlag
 .text.EVENT_SetIRQPriority
                0x000000000100723a       0x8a startup\system_RV32M1_zero_riscy.o
                0x000000000100723a                EVENT_SetIRQPriority
 .text.DbgConsole_Init
                0x00000000010072c4       0x60 utilities\fsl_debug_console.o
                0x00000000010072c4                DbgConsole_Init
 .text.DbgConsole_Printf
                0x0000000001007324       0x7e utilities\fsl_debug_console.o
                0x0000000001007324                DbgConsole_Printf
 .text.DbgConsole_RelocateLog
                0x00000000010073a2       0x92 utilities\fsl_debug_console.o
 .text.LPUART_EnableTx
                0x0000000001007434       0x46 utilities\fsl_io.o
 .text.LPUART_EnableRx
                0x000000000100747a       0x46 utilities\fsl_io.o
 .text.IO_Init  0x00000000010074c0       0xd4 utilities\fsl_io.o
                0x00000000010074c0                IO_Init
 .text.IO_Transfer
                0x0000000001007594       0x82 utilities\fsl_io.o
                0x0000000001007594                IO_Transfer
 .text.LOG_Init
                0x0000000001007616       0x4a utilities\fsl_log.o
                0x0000000001007616                LOG_Init
 .text.LOG_Push
                0x0000000001007660       0x4c utilities\fsl_log.o
                0x0000000001007660                LOG_Push
 .text.LOG_Pop  0x00000000010076ac       0x50 utilities\fsl_log.o
                0x00000000010076ac                LOG_Pop
 .text.ConvertRadixNumToString
                0x00000000010076fc      0x1b6 utilities\fsl_str.o
 .text.StrFormatPrintf
                0x00000000010078b2      0x4dc utilities\fsl_str.o
                0x00000000010078b2                StrFormatPrintf
 *(.rodata)
 *fill*         0x0000000001007d8e        0x2 
 .rodata        0x0000000001007d90       0x73 board\board.o
 *fill*         0x0000000001007e03        0x1 
 .rodata        0x0000000001007e04       0x40 board\clock_config.o
 .rodata        0x0000000001007e44       0x6c board\pin_mux.o
 .rodata        0x0000000001007eb0      0x104 drivers\fsl_clock.o
 .rodata        0x0000000001007fb4       0x3e drivers\fsl_common.o
 *fill*         0x0000000001007ff2        0x2 
 .rodata        0x0000000001007ff4      0x135 drivers\fsl_intmux.o
 *fill*         0x0000000001008129        0x3 
 .rodata        0x000000000100812c      0x1c6 drivers\fsl_lpuart.o
 *fill*         0x00000000010082f2        0x2 
 .rodata        0x00000000010082f4       0x73 freertos\portable\port.o
 *fill*         0x0000000001008367        0x1 
 .rodata        0x0000000001008368       0x18 freertos\tasks.o
                0x0000000001008370                FreeRTOSDebugConfig
 .rodata        0x0000000001008380        0xd freertos\timers.o
 *fill*         0x000000000100838d        0x3 
 .rodata        0x0000000001008390      0x11d source\freertos_lpuart.o
 *fill*         0x00000000010084ad        0x3 
 .rodata        0x00000000010084b0       0x6c startup\system_RV32M1_zero_riscy.o
 .rodata        0x000000000100851c       0x6e utilities\fsl_debug_console.o
 *fill*         0x000000000100858a        0x2 
 .rodata        0x000000000100858c       0x43 utilities\fsl_io.o
 *fill*         0x00000000010085cf        0x1 
 .rodata        0x00000000010085d0       0x4f utilities\fsl_log.o
 *(.rodata*)
 *fill*         0x000000000100861f        0x1 
 .rodata.__func__.3616
                0x0000000001008620        0xf board\board.o
 *fill*         0x000000000100862f        0x1 
 .rodata.g_scgSircConfig_BOARD_BootClockRUN
                0x0000000001008630       0x14 board\clock_config.o
                0x0000000001008630                g_scgSircConfig_BOARD_BootClockRUN
 .rodata.g_scgFircConfig_BOARD_BootClockRUN
                0x0000000001008644       0x18 board\clock_config.o
                0x0000000001008644                g_scgFircConfig_BOARD_BootClockRUN
 .rodata.g_scgLpFllConfig_BOARD_BootClockRUN
                0x000000000100865c       0x18 board\clock_config.o
                0x000000000100865c                g_scgLpFllConfig_BOARD_BootClockRUN
 .rodata.__func__.3665
                0x0000000001008674       0x1d board\clock_config.o
 *fill*         0x0000000001008691        0x3 
 .rodata.__func__.3673
                0x0000000001008694       0x19 board\clock_config.o
 *fill*         0x00000000010086ad        0x3 
 .rodata.__func__.3602
                0x00000000010086b0       0x12 board\pin_mux.o
 *fill*         0x00000000010086c2        0x2 
 .rodata.__func__.3865
                0x00000000010086c4       0x10 drivers\fsl_clock.o
 .rodata.__func__.3911
                0x00000000010086d4       0x14 drivers\fsl_clock.o
 .rodata.__func__.3925
                0x00000000010086e8        0xf drivers\fsl_clock.o
 *fill*         0x00000000010086f7        0x1 
 .rodata.__func__.3951
                0x00000000010086f8        0xf drivers\fsl_clock.o
 *fill*         0x0000000001008707        0x1 
 .rodata.fircFreq.3963
                0x0000000001008708       0x10 drivers\fsl_clock.o
 .rodata.__func__.3981
                0x0000000001008718       0x10 drivers\fsl_clock.o
 .rodata.lpfllFreq.3996
                0x0000000001008728       0x10 drivers\fsl_clock.o
 .rodata.s_intmuxIRQNumber
                0x0000000001008738       0x40 drivers\fsl_intmux.o
 .rodata.__func__.3860
                0x0000000001008778       0x13 drivers\fsl_intmux.o
 *fill*         0x000000000100878b        0x1 
 .rodata.__func__.3602
                0x000000000100878c       0x12 drivers\fsl_intmux.o
 *fill*         0x000000000100879e        0x2 
 .rodata.__func__.3821
                0x00000000010087a0       0x14 drivers\fsl_intmux.o
 .rodata.s_lpuartBases
                0x00000000010087b4       0x10 drivers\fsl_lpuart.o
 .rodata.s_lpuartIRQ
                0x00000000010087c4       0x10 drivers\fsl_lpuart.o
 .rodata.s_lpuartClock
                0x00000000010087d4       0x10 drivers\fsl_lpuart.o
 .rodata.__func__.4078
                0x00000000010087e4       0x13 drivers\fsl_lpuart.o
 *fill*         0x00000000010087f7        0x1 
 .rodata.__func__.4083
                0x00000000010087f8       0x25 drivers\fsl_lpuart.o
 *fill*         0x000000000100881d        0x3 
 .rodata.__func__.4089
                0x0000000001008820       0x22 drivers\fsl_lpuart.o
 *fill*         0x0000000001008842        0x2 
 .rodata.__func__.4096
                0x0000000001008844       0x18 drivers\fsl_lpuart.o
 .rodata.__func__.4106
                0x000000000100885c       0x17 drivers\fsl_lpuart.o
 *fill*         0x0000000001008873        0x1 
 .rodata.__func__.4118
                0x0000000001008874        0xc drivers\fsl_lpuart.o
 .rodata.__func__.3602
                0x0000000001008880       0x12 drivers\fsl_lpuart.o
 *fill*         0x0000000001008892        0x2 
 .rodata.__func__.3606
                0x0000000001008894       0x13 drivers\fsl_lpuart.o
 *fill*         0x00000000010088a7        0x1 
 .rodata.__func__.4145
                0x00000000010088a8       0x18 drivers\fsl_lpuart.o
 .rodata.__func__.4191
                0x00000000010088c0       0x15 drivers\fsl_lpuart.o
 *fill*         0x00000000010088d5        0x3 
 .rodata.__func__.4203
                0x00000000010088d8       0x14 drivers\fsl_lpuart.o
 .rodata.__func__.4219
                0x00000000010088ec       0x1c drivers\fsl_lpuart.o
 .rodata.__func__.4229
                0x0000000001008908       0x1f drivers\fsl_lpuart.o
 *fill*         0x0000000001008927        0x1 
 .rodata.__func__.4240
                0x0000000001008928       0x1f drivers\fsl_lpuart.o
 *fill*         0x0000000001008947        0x1 
 .rodata.__func__.4259
                0x0000000001008948       0x22 drivers\fsl_lpuart.o
 *fill*         0x000000000100896a        0x2 
 .rodata.__func__.4272
                0x000000000100896c       0x1c drivers\fsl_lpuart.o
 .rodata.__func__.4283
                0x0000000001008988       0x19 drivers\fsl_lpuart.o
 *fill*         0x00000000010089a1        0x3 
 .rodata.__func__.4020
                0x00000000010089a4        0xf freertos\portable\port.o
 *fill*         0x00000000010089b3        0x1 
 .rodata.prvProcessReceivedCommands
                0x00000000010089b4       0x28 freertos\timers.o
 .rodata.__func__.4750
                0x00000000010089dc       0x17 source\freertos_lpuart.o
 *fill*         0x00000000010089f3        0x1 
 .rodata.__func__.3602
                0x00000000010089f4       0x12 startup\system_RV32M1_zero_riscy.o
 *fill*         0x0000000001008a06        0x2 
 .rodata.__func__.4495
                0x0000000001008a08       0x10 utilities\fsl_debug_console.o
 .rodata.__func__.4313
                0x0000000001008a18        0x9 utilities\fsl_log.o
 *(.srodata .srodata.*)
 *(.glue_7)
 *(.glue_7t)
 *(.eh_frame)
 *(.init)
 *(.fini)

.rela.dyn       0x0000000001008a24        0x0
 .rela.text.CLOCK_SetIpSrc
                0x0000000001008a24        0x0 board\board.o
 .rela.text.BOARD_InitDebugConsole
                0x0000000001008a24        0x0 board\board.o
 .rela.text.CLOCK_SetVlprModeSysClkConfig
                0x0000000001008a24        0x0 board\board.o
 .rela.text.CLOCK_SetRunModeSysClkConfig
                0x0000000001008a24        0x0 board\board.o
 .rela.text.CLOCK_SetHsrunModeSysClkConfig
                0x0000000001008a24        0x0 board\board.o
 .rela.text.CLOCK_GetCurSysClkConfig
                0x0000000001008a24        0x0 board\board.o
 .rela.text.CLOCK_CONFIG_FircSafeConfig
                0x0000000001008a24        0x0 board\board.o
 .rela.text.BOARD_BootClockRUN
                0x0000000001008a24        0x0 board\board.o
 .rela.text.BOARD_BootClockHSRUN
                0x0000000001008a24        0x0 board\board.o
 .rela.text.BOARD_BootClockVLPR
                0x0000000001008a24        0x0 board\board.o
 .rela.text.CLOCK_EnableClock
                0x0000000001008a24        0x0 board\board.o
 .rela.text.LPUART_RTOS_Callback
                0x0000000001008a24        0x0 board\board.o
 .rela.text.LPUART_RTOS_Init
                0x0000000001008a24        0x0 board\board.o
 .rela.text.LPUART_RTOS_Deinit
                0x0000000001008a24        0x0 board\board.o
 .rela.text.LPUART_RTOS_Send
                0x0000000001008a24        0x0 board\board.o
 .rela.text.LPUART_RTOS_Receive
                0x0000000001008a24        0x0 board\board.o
 .rela.text.CLOCK_GetOsc32kClkFreq
                0x0000000001008a24        0x0 board\board.o
 .rela.text.CLOCK_GetIpFreq
                0x0000000001008a24        0x0 board\board.o
 .rela.text.CLOCK_InitSysOsc
                0x0000000001008a24        0x0 board\board.o
 .rela.text.CLOCK_GetSysOscFreq
                0x0000000001008a24        0x0 board\board.o
 .rela.text.CLOCK_InitSirc
                0x0000000001008a24        0x0 board\board.o
 .rela.text.CLOCK_InitFirc
                0x0000000001008a24        0x0 board\board.o
 .rela.text.CLOCK_GetRtcOscFreq
                0x0000000001008a24        0x0 board\board.o
 .rela.text.CLOCK_InitLpFll
                0x0000000001008a24        0x0 board\board.o
 .rela.text.__assert_func
                0x0000000001008a24        0x0 board\board.o
 .rela.text.INTMUX_CommonIRQHandler
                0x0000000001008a24        0x0 board\board.o
 .rela.text.LPUART_TransferCreateHandle
                0x0000000001008a24        0x0 board\board.o
 .rela.text.xEventGroupCreate
                0x0000000001008a24        0x0 board\board.o
 .rela.text.xEventGroupSync
                0x0000000001008a24        0x0 board\board.o
 .rela.text.xEventGroupWaitBits
                0x0000000001008a24        0x0 board\board.o
 .rela.text.xEventGroupClearBits
                0x0000000001008a24        0x0 board\board.o
 .rela.text.xEventGroupClearBitsFromISR
                0x0000000001008a24        0x0 board\board.o
 .rela.text.xEventGroupGetBitsFromISR
                0x0000000001008a24        0x0 board\board.o
 .rela.text.xEventGroupSetBits
                0x0000000001008a24        0x0 board\board.o
 .rela.text.vEventGroupDelete
                0x0000000001008a24        0x0 board\board.o
 .rela.text.xEventGroupSetBitsFromISR
                0x0000000001008a24        0x0 board\board.o
 .rela.text.pvPortMalloc
                0x0000000001008a24        0x0 board\board.o
 .rela.text.vPortFree
                0x0000000001008a24        0x0 board\board.o
 .rela.text.pxPortInitialiseStack
                0x0000000001008a24        0x0 board\board.o
 .rela.text.xPortStartScheduler
                0x0000000001008a24        0x0 board\board.o
 .rela.text.LPIT1_IRQHandler
                0x0000000001008a24        0x0 board\board.o
 .rela.text     0x0000000001008a24        0x0 board\board.o
 .rela.text.xQueueGenericReset
                0x0000000001008a24        0x0 board\board.o
 .rela.text.xQueueGiveMutexRecursive
                0x0000000001008a24        0x0 board\board.o
 .rela.text.xQueueTakeMutexRecursive
                0x0000000001008a24        0x0 board\board.o
 .rela.text.xQueueGenericSend
                0x0000000001008a24        0x0 board\board.o
 .rela.text.xQueueGenericSendFromISR
                0x0000000001008a24        0x0 board\board.o
 .rela.text.xQueueGiveFromISR
                0x0000000001008a24        0x0 board\board.o
 .rela.text.xQueueGenericReceive
                0x0000000001008a24        0x0 board\board.o
 .rela.text.xQueueReceiveFromISR
                0x0000000001008a24        0x0 board\board.o
 .rela.text.prvCopyDataToQueue
                0x0000000001008a24        0x0 board\board.o
 .rela.text.prvCopyDataFromQueue
                0x0000000001008a24        0x0 board\board.o
 .rela.text.prvUnlockQueue
                0x0000000001008a24        0x0 board\board.o
 .rela.text.vQueueWaitForMessageRestricted
                0x0000000001008a24        0x0 board\board.o
 .rela.text.prvInitialiseNewTask
                0x0000000001008a24        0x0 board\board.o
 .rela.text.vTaskStartScheduler
                0x0000000001008a24        0x0 board\board.o
 .rela.text.main
                0x0000000001008a24        0x0 board\board.o
 .rela.text.uart_rx_irq_handler
                0x0000000001008a24        0x0 board\board.o
 .rela.text.uart_task
                0x0000000001008a24        0x0 board\board.o
 .rela.vectors  0x0000000001008a24        0x0 board\board.o
 .rela.text.DMA1_04_IRQHandler
                0x0000000001008a24        0x0 board\board.o
 .rela.text.DMA1_15_IRQHandler
                0x0000000001008a24        0x0 board\board.o
 .rela.text.DMA1_26_IRQHandler
                0x0000000001008a24        0x0 board\board.o
 .rela.text.DMA1_37_IRQHandler
                0x0000000001008a24        0x0 board\board.o
 .rela.text.DMA1_Error_IRQHandler
                0x0000000001008a24        0x0 board\board.o
 .rela.text.LPI2C3_IRQHandler
                0x0000000001008a24        0x0 board\board.o
 .rela.text.LPSPI3_IRQHandler
                0x0000000001008a24        0x0 board\board.o
 .rela.text.FLEXIO0_IRQHandler
                0x0000000001008a24        0x0 board\board.o
 .rela.text.LPI2C0_IRQHandler
                0x0000000001008a24        0x0 board\board.o
 .rela.text.LPI2C1_IRQHandler
                0x0000000001008a24        0x0 board\board.o
 .rela.text.LPI2C2_IRQHandler
                0x0000000001008a24        0x0 board\board.o
 .rela.text.I2S0_IRQHandler
                0x0000000001008a24        0x0 board\board.o
 .rela.text.USDHC0_IRQHandler
                0x0000000001008a24        0x0 board\board.o
 .rela.text.LPSPI0_IRQHandler
                0x0000000001008a24        0x0 board\board.o
 .rela.text.LPSPI1_IRQHandler
                0x0000000001008a24        0x0 board\board.o
 .rela.text.LPSPI2_IRQHandler
                0x0000000001008a24        0x0 board\board.o
 .relauser_vectors
                0x0000000001008a24        0x0 board\board.o
 .rela.text.SystemInit
                0x0000000001008a24        0x0 board\board.o
 .rela.text.DbgConsole_Init
                0x0000000001008a24        0x0 board\board.o
 .rela.text.DbgConsole_Deinit
                0x0000000001008a24        0x0 board\board.o
 .rela.text.DbgConsole_Flush
                0x0000000001008a24        0x0 board\board.o
 .rela.text.DbgConsole_Printf
                0x0000000001008a24        0x0 board\board.o
 .rela.text.DbgConsole_Putchar
                0x0000000001008a24        0x0 board\board.o
 .rela.text.DbgConsole_Scanf
                0x0000000001008a24        0x0 board\board.o
 .rela.text.DbgConsole_Getchar
                0x0000000001008a24        0x0 board\board.o
 .rela.text.DbgConsole_RelocateLog
                0x0000000001008a24        0x0 board\board.o
 .rela.text._write
                0x0000000001008a24        0x0 board\board.o
 .rela.text._read
                0x0000000001008a24        0x0 board\board.o
 .rela.text.read
                0x0000000001008a24        0x0 board\board.o
 .rela.text.write
                0x0000000001008a24        0x0 board\board.o
 .rela.text.StrFormatPrintf
                0x0000000001008a24        0x0 board\board.o

.preinit_array  0x0000000001008a21        0x0
                0x0000000001008a21                PROVIDE (__preinit_array_start, .)
 *(.preinit_array*)
                0x0000000001008a21                PROVIDE (__preinit_array_end, .)

.init_array     0x0000000001008a21        0x0
                0x0000000001008a21                PROVIDE (__init_array_start, .)
 *(SORT(.init_array.*))
 *(.init_array*)
                0x0000000001008a21                PROVIDE (__init_array_end, .)

.fini_array     0x0000000001008a21        0x0
                [!provide]                        PROVIDE (__fini_array_start, .)
 *(SORT(.fini_array.*))
 *(.fini_array*)
                [!provide]                        PROVIDE (__fini_array_end, .)
                0x0000000001008a21                __etext = .
                0x0000000001008a21                __global_pointer = .
                0x0000000001008a21                __DATA_ROM = .

.data           0x0000000009000000       0x58 load address 0x0000000001008a21
                0x0000000009000000                . = ALIGN (0x4)
                0x0000000009000000                __DATA_RAM = .
                0x0000000009000000                __data_start__ = .
 *(.data)
 .data          0x0000000009000000        0x4 freertos\portable\portASM.o
 *(.data*)
 .data.lpuart_config
                0x0000000009000004       0x1c source\freertos_lpuart.o
                0x0000000009000004                lpuart_config
 *(.sdata .sdata.*)
 .sdata.g_sysClkConfig_BOARD_BootClockRUN
                0x0000000009000020        0x4 board\clock_config.o
                0x0000000009000020                g_sysClkConfig_BOARD_BootClockRUN
 .sdata.sircFreq.3937
                0x0000000009000024        0x8 drivers\fsl_clock.o
 .sdata.s_intmuxBases
                0x000000000900002c        0x8 drivers\fsl_intmux.o
 .sdata.s_intmuxClockName
                0x0000000009000034        0x8 drivers\fsl_intmux.o
 .sdata.uxCriticalNesting
                0x000000000900003c        0x4 freertos\portable\port.o
                0x000000000900003c                uxCriticalNesting
 .sdata.to_send
                0x0000000009000040        0x4 source\freertos_lpuart.o
                0x0000000009000040                to_send
 .sdata.send_ring_overrun
                0x0000000009000044        0x4 source\freertos_lpuart.o
                0x0000000009000044                send_ring_overrun
 .sdata.send_hardware_overrun
                0x0000000009000048        0x4 source\freertos_lpuart.o
                0x0000000009000048                send_hardware_overrun
 .sdata.SystemCoreClock
                0x000000000900004c        0x4 startup\system_RV32M1_zero_riscy.o
                0x000000000900004c                SystemCoreClock
 .sdata.__func__.4070
                0x0000000009000050        0x8 utilities\fsl_io.o
 *(.heapsram*)
                0x0000000009000058                __noncachedata_start__ = .
 *(NonCacheable)
                0x0000000009000058                __noncachedata_end__ = .
 *(.jcr*)
                0x0000000009000058                . = ALIGN (0x4)
                0x0000000009000058                __data_end__ = .
                0x0000000001008a79                __DATA_END = (__DATA_ROM + (__data_end__ - __data_start__))
                0x000000000103ff00                text_end = (ORIGIN (m_text) + LENGTH (m_text))
                0x0000000000000001                ASSERT ((__DATA_END <= text_end), region m_text overflowed with text and data)
                0x0000000009000058                _edata = .

.bss            0x0000000009000058     0x2a64 load address 0x0000000001008a7c
                0x0000000009000058                . = ALIGN (0x4)
                0x0000000009000058                __START_BSS = .
                0x0000000009000058                __bss_start__ = .
 *(.bss)
 *(.bss*)
 .bss.s_lpuartHandle
                0x0000000009000058       0x10 drivers\fsl_lpuart.o
 .bss.ucHeap    0x0000000009000068     0x2800 freertos\heap_4.o
 .bss.xQueueRegistry
                0x0000000009002868       0x40 freertos\queue.o
                0x0000000009002868                xQueueRegistry
 .bss.pxReadyTasksLists
                0x00000000090028a8       0x64 freertos\tasks.o
 .bss.xDelayedTaskList1
                0x000000000900290c       0x14 freertos\tasks.o
 .bss.xDelayedTaskList2
                0x0000000009002920       0x14 freertos\tasks.o
 .bss.xPendingReadyList
                0x0000000009002934       0x14 freertos\tasks.o
 .bss.xTasksWaitingTermination
                0x0000000009002948       0x14 freertos\tasks.o
 .bss.xSuspendedTaskList
                0x000000000900295c       0x14 freertos\tasks.o
 .bss.xActiveTimerList1
                0x0000000009002970       0x14 freertos\timers.o
 .bss.xActiveTimerList2
                0x0000000009002984       0x14 freertos\timers.o
 .bss.background_buffer
                0x0000000009002998       0x20 source\freertos_lpuart.o
                0x0000000009002998                background_buffer
 .bss.handle    0x00000000090029b8       0x28 source\freertos_lpuart.o
                0x00000000090029b8                handle
 .bss.t_handle  0x00000000090029e0       0x30 source\freertos_lpuart.o
                0x00000000090029e0                t_handle
 .bss.RxChars   0x0000000009002a10       0x20 source\freertos_lpuart.o
                0x0000000009002a10                RxChars
 *(.sbss)
 *(.sbss*)
 .sbss.g_xtal0Freq
                0x0000000009002a30        0x4 drivers\fsl_clock.o
                0x0000000009002a30                g_xtal0Freq
 .sbss.s_lpuartIsr
                0x0000000009002a34        0x4 drivers\fsl_lpuart.o
 .sbss.xStart   0x0000000009002a38        0x8 freertos\heap_4.o
 .sbss.pxEnd    0x0000000009002a40        0x4 freertos\heap_4.o
 .sbss.xFreeBytesRemaining
                0x0000000009002a44        0x4 freertos\heap_4.o
 .sbss.xMinimumEverFreeBytesRemaining
                0x0000000009002a48        0x4 freertos\heap_4.o
 .sbss.xBlockAllocatedBit
                0x0000000009002a4c        0x4 freertos\heap_4.o
 .sbss.uxInterruptNesting
                0x0000000009002a50        0x4 freertos\portable\port.o
                0x0000000009002a50                uxInterruptNesting
 .sbss.uxYieldRequired
                0x0000000009002a54        0x4 freertos\portable\port.o
                0x0000000009002a54                uxYieldRequired
 .sbss.pxCurrentTCB
                0x0000000009002a58        0x4 freertos\tasks.o
                0x0000000009002a58                pxCurrentTCB
 .sbss.pxDelayedTaskList
                0x0000000009002a5c        0x4 freertos\tasks.o
 .sbss.pxOverflowDelayedTaskList
                0x0000000009002a60        0x4 freertos\tasks.o
 .sbss.uxDeletedTasksWaitingCleanUp
                0x0000000009002a64        0x4 freertos\tasks.o
 .sbss.uxCurrentNumberOfTasks
                0x0000000009002a68        0x4 freertos\tasks.o
 .sbss.xTickCount
                0x0000000009002a6c        0x4 freertos\tasks.o
 .sbss.uxTopReadyPriority
                0x0000000009002a70        0x4 freertos\tasks.o
 .sbss.xSchedulerRunning
                0x0000000009002a74        0x4 freertos\tasks.o
 .sbss.uxPendedTicks
                0x0000000009002a78        0x4 freertos\tasks.o
 .sbss.xYieldPending
                0x0000000009002a7c        0x4 freertos\tasks.o
 .sbss.xNumOfOverflows
                0x0000000009002a80        0x4 freertos\tasks.o
 .sbss.uxTaskNumber
                0x0000000009002a84        0x4 freertos\tasks.o
 .sbss.xNextTaskUnblockTime
                0x0000000009002a88        0x4 freertos\tasks.o
 .sbss.xIdleTaskHandle
                0x0000000009002a8c        0x4 freertos\tasks.o
 .sbss.uxSchedulerSuspended
                0x0000000009002a90        0x4 freertos\tasks.o
 .sbss.pxCurrentTimerList
                0x0000000009002a94        0x4 freertos\timers.o
 .sbss.pxOverflowTimerList
                0x0000000009002a98        0x4 freertos\timers.o
 .sbss.xTimerQueue
                0x0000000009002a9c        0x4 freertos\timers.o
 .sbss.xTimerTaskHandle
                0x0000000009002aa0        0x4 freertos\timers.o
 .sbss.xLastTime.4840
                0x0000000009002aa4        0x4 freertos\timers.o
 .sbss.recv_buffer
                0x0000000009002aa8        0x4 source\freertos_lpuart.o
                0x0000000009002aa8                recv_buffer
 .sbss.irq_counter
                0x0000000009002aac        0x1 source\freertos_lpuart.o
                0x0000000009002aac                irq_counter
 *fill*         0x0000000009002aad        0x3 
 .sbss.irqNesting
                0x0000000009002ab0        0x4 startup\system_RV32M1_zero_riscy.o
 .sbss.s_debugConsoleIO
                0x0000000009002ab4        0x8 utilities\fsl_io.o
 *(COMMON)
                0x0000000009002abc                . = ALIGN (0x4)
                0x0000000009002abc                __bss_end__ = .
                0x0000000009002abc                __END_BSS = .
                0x0000000009002abc                _end = .
                [!provide]                        PROVIDE (end, .)

.heap           0x0000000009002abc      0x404 load address 0x000000000100b4e0
                0x0000000009002ac0                . = ALIGN (0x8)
 *fill*         0x0000000009002abc        0x4 
                0x0000000009002ac0                __heap_start = .
                0x0000000009002ec0                . = (. + HEAP_SIZE)
 *fill*         0x0000000009002ac0      0x400 
                0x0000000009002ec0                __heap_end = .
                0x0000000009002ec0                _heap_end = __heap_end

.stack          0x0000000009002ec0      0x800 load address 0x000000000100b8e4
                0x0000000009002ec0                . = ALIGN (0x8)
                0x0000000009002ec0                __StackLimit = .
                0x00000000090036c0                . = (. + STACK_SIZE)
 *fill*         0x0000000009002ec0      0x800 
                0x00000000090036c0                __StackTop = .

m_usb_bdt       0x0000000048010000        0x0
                0x0000000048010000                . = ALIGN (0x200)
 *(m_usb_bdt)

m_usb_global
 *(m_usb_global)
                [!provide]                        PROVIDE (__stack, __StackTop)
OUTPUT(freertos_lpuart_zero_riscy_rv32m1_vega.elf elf32-littleriscv)

.debug_frame    0x0000000000000000     0x4e30
 .debug_frame   0x0000000000000000       0x88 board\board.o
 .debug_frame   0x0000000000000088      0x294 board\clock_config.o
 .debug_frame   0x000000000000031c       0xf8 board\pin_mux.o
 .debug_frame   0x0000000000000414      0x1a4 drivers\freertos\fsl_lpuart_freertos.o
 .debug_frame   0x00000000000005b8      0x714 drivers\fsl_clock.o
 .debug_frame   0x0000000000000ccc       0x38 drivers\fsl_common.o
 .debug_frame   0x0000000000000d04      0x3fc drivers\fsl_intmux.o
 .debug_frame   0x0000000000001100      0x80c drivers\fsl_lpuart.o
 .debug_frame   0x000000000000190c      0x30c freertos\event_groups.o
 .debug_frame   0x0000000000001c18      0x18c freertos\heap_4.o
 .debug_frame   0x0000000000001da4      0x114 freertos\list.o
 .debug_frame   0x0000000000001eb8      0x308 freertos\portable\port.o
 .debug_frame   0x00000000000021c0      0x770 freertos\queue.o
 .debug_frame   0x0000000000002930      0xd2c freertos\tasks.o
 .debug_frame   0x000000000000365c      0x51c freertos\timers.o
 .debug_frame   0x0000000000003b78       0xfc source\freertos_lpuart.o
 .debug_frame   0x0000000000003c74      0x9c0 startup\system_RV32M1_zero_riscy.o
 .debug_frame   0x0000000000004634      0x3b4 utilities\fsl_debug_console.o
 .debug_frame   0x00000000000049e8      0x168 utilities\fsl_io.o
 .debug_frame   0x0000000000004b50      0x1f0 utilities\fsl_log.o
 .debug_frame   0x0000000000004d40       0xf0 utilities\fsl_str.o

.debug_info     0x0000000000000000    0x19c1d
 .debug_info    0x0000000000000000     0x1252 board\board.o
 .debug_info    0x0000000000001252     0x1843 board\clock_config.o
 .debug_info    0x0000000000002a95      0xd0f board\pin_mux.o
 .debug_info    0x00000000000037a4     0x1218 drivers\freertos\fsl_lpuart_freertos.o
 .debug_info    0x00000000000049bc     0x21ac drivers\fsl_clock.o
 .debug_info    0x0000000000006b68      0x904 drivers\fsl_common.o
 .debug_info    0x000000000000746c     0x1414 drivers\fsl_intmux.o
 .debug_info    0x0000000000008880     0x22d0 drivers\fsl_lpuart.o
 .debug_info    0x000000000000ab50      0xf49 freertos\event_groups.o
 .debug_info    0x000000000000ba99      0xcbf freertos\heap_4.o
 .debug_info    0x000000000000c758      0xae0 freertos\list.o
 .debug_info    0x000000000000d238      0xf94 freertos\portable\port.o
 .debug_info    0x000000000000e1cc       0xdd freertos\portable\portASM.o
 .debug_info    0x000000000000e2a9     0x17b7 freertos\queue.o
 .debug_info    0x000000000000fa60     0x2121 freertos\tasks.o
 .debug_info    0x0000000000011b81     0x147f freertos\timers.o
 .debug_info    0x0000000000013000     0x1aff source\freertos_lpuart.o
 .debug_info    0x0000000000014aff       0xd0 startup\startup_RV32M1_zero_riscy.o
 .debug_info    0x0000000000014bcf     0x1851 startup\system_RV32M1_zero_riscy.o
 .debug_info    0x0000000000016420      0xf5d utilities\fsl_debug_console.o
 .debug_info    0x000000000001737d      0xfee utilities\fsl_io.o
 .debug_info    0x000000000001836b      0xb91 utilities\fsl_log.o
 .debug_info    0x0000000000018efc      0xd21 utilities\fsl_str.o

.debug_abbrev   0x0000000000000000     0x3a37
 .debug_abbrev  0x0000000000000000      0x269 board\board.o
 .debug_abbrev  0x0000000000000269      0x350 board\clock_config.o
 .debug_abbrev  0x00000000000005b9      0x250 board\pin_mux.o
 .debug_abbrev  0x0000000000000809      0x271 drivers\freertos\fsl_lpuart_freertos.o
 .debug_abbrev  0x0000000000000a7a      0x34d drivers\fsl_clock.o
 .debug_abbrev  0x0000000000000dc7      0x1b9 drivers\fsl_common.o
 .debug_abbrev  0x0000000000000f80      0x2d1 drivers\fsl_intmux.o
 .debug_abbrev  0x0000000000001251      0x363 drivers\fsl_lpuart.o
 .debug_abbrev  0x00000000000015b4      0x27d freertos\event_groups.o
 .debug_abbrev  0x0000000000001831      0x293 freertos\heap_4.o
 .debug_abbrev  0x0000000000001ac4      0x202 freertos\list.o
 .debug_abbrev  0x0000000000001cc6      0x3a3 freertos\portable\port.o
 .debug_abbrev  0x0000000000002069       0x14 freertos\portable\portASM.o
 .debug_abbrev  0x000000000000207d      0x2c1 freertos\queue.o
 .debug_abbrev  0x000000000000233e      0x359 freertos\tasks.o
 .debug_abbrev  0x0000000000002697      0x2b4 freertos\timers.o
 .debug_abbrev  0x000000000000294b      0x2bd source\freertos_lpuart.o
 .debug_abbrev  0x0000000000002c08       0x12 startup\startup_RV32M1_zero_riscy.o
 .debug_abbrev  0x0000000000002c1a      0x382 startup\system_RV32M1_zero_riscy.o
 .debug_abbrev  0x0000000000002f9c      0x2c7 utilities\fsl_debug_console.o
 .debug_abbrev  0x0000000000003263      0x2b2 utilities\fsl_io.o
 .debug_abbrev  0x0000000000003515      0x29b utilities\fsl_log.o
 .debug_abbrev  0x00000000000037b0      0x287 utilities\fsl_str.o

.debug_aranges  0x0000000000000000      0xce0
 .debug_aranges
                0x0000000000000000       0x28 board\board.o
 .debug_aranges
                0x0000000000000028       0x70 board\clock_config.o
 .debug_aranges
                0x0000000000000098       0x38 board\pin_mux.o
 .debug_aranges
                0x00000000000000d0       0x50 drivers\freertos\fsl_lpuart_freertos.o
 .debug_aranges
                0x0000000000000120      0x110 drivers\fsl_clock.o
 .debug_aranges
                0x0000000000000230       0x20 drivers\fsl_common.o
 .debug_aranges
                0x0000000000000250       0xa0 drivers\fsl_intmux.o
 .debug_aranges
                0x00000000000002f0      0x130 drivers\fsl_lpuart.o
 .debug_aranges
                0x0000000000000420       0x80 freertos\event_groups.o
 .debug_aranges
                0x00000000000004a0       0x50 freertos\heap_4.o
 .debug_aranges
                0x00000000000004f0       0x40 freertos\list.o
 .debug_aranges
                0x0000000000000530       0x88 freertos\portable\port.o
 .debug_aranges
                0x00000000000005b8       0x20 freertos\portable\portASM.o
 .debug_aranges
                0x00000000000005d8      0x118 freertos\queue.o
 .debug_aranges
                0x00000000000006f0      0x1e8 freertos\tasks.o
 .debug_aranges
                0x00000000000008d8       0xc8 freertos\timers.o
 .debug_aranges
                0x00000000000009a0       0x38 source\freertos_lpuart.o
 .debug_aranges
                0x00000000000009d8       0x28 startup\startup_RV32M1_zero_riscy.o
 .debug_aranges
                0x0000000000000a00      0x170 startup\system_RV32M1_zero_riscy.o
 .debug_aranges
                0x0000000000000b70       0x98 utilities\fsl_debug_console.o
 .debug_aranges
                0x0000000000000c08       0x48 utilities\fsl_io.o
 .debug_aranges
                0x0000000000000c50       0x58 utilities\fsl_log.o
 .debug_aranges
                0x0000000000000ca8       0x38 utilities\fsl_str.o

.debug_ranges   0x0000000000000000      0xb68
 .debug_ranges  0x0000000000000000       0x18 board\board.o
 .debug_ranges  0x0000000000000018       0x60 board\clock_config.o
 .debug_ranges  0x0000000000000078       0x28 board\pin_mux.o
 .debug_ranges  0x00000000000000a0       0x40 drivers\freertos\fsl_lpuart_freertos.o
 .debug_ranges  0x00000000000000e0      0x100 drivers\fsl_clock.o
 .debug_ranges  0x00000000000001e0       0x10 drivers\fsl_common.o
 .debug_ranges  0x00000000000001f0       0x90 drivers\fsl_intmux.o
 .debug_ranges  0x0000000000000280      0x120 drivers\fsl_lpuart.o
 .debug_ranges  0x00000000000003a0       0x70 freertos\event_groups.o
 .debug_ranges  0x0000000000000410       0x40 freertos\heap_4.o
 .debug_ranges  0x0000000000000450       0x30 freertos\list.o
 .debug_ranges  0x0000000000000480       0x78 freertos\portable\port.o
 .debug_ranges  0x00000000000004f8      0x108 freertos\queue.o
 .debug_ranges  0x0000000000000600      0x1d8 freertos\tasks.o
 .debug_ranges  0x00000000000007d8       0xb8 freertos\timers.o
 .debug_ranges  0x0000000000000890       0x28 source\freertos_lpuart.o
 .debug_ranges  0x00000000000008b8       0x20 startup\startup_RV32M1_zero_riscy.o
 .debug_ranges  0x00000000000008d8      0x160 startup\system_RV32M1_zero_riscy.o
 .debug_ranges  0x0000000000000a38       0x88 utilities\fsl_debug_console.o
 .debug_ranges  0x0000000000000ac0       0x38 utilities\fsl_io.o
 .debug_ranges  0x0000000000000af8       0x48 utilities\fsl_log.o
 .debug_ranges  0x0000000000000b40       0x28 utilities\fsl_str.o

.debug_line     0x0000000000000000     0xae5e
 .debug_line    0x0000000000000000      0x230 board\board.o
 .debug_line    0x0000000000000230      0x459 board\clock_config.o
 .debug_line    0x0000000000000689      0x24a board\pin_mux.o
 .debug_line    0x00000000000008d3      0x64c drivers\freertos\fsl_lpuart_freertos.o
 .debug_line    0x0000000000000f1f      0xc8e drivers\fsl_clock.o
 .debug_line    0x0000000000001bad      0x1ff drivers\fsl_common.o
 .debug_line    0x0000000000001dac      0x4f6 drivers\fsl_intmux.o
 .debug_line    0x00000000000022a2     0x1287 drivers\fsl_lpuart.o
 .debug_line    0x0000000000003529      0x862 freertos\event_groups.o
 .debug_line    0x0000000000003d8b      0x52b freertos\heap_4.o
 .debug_line    0x00000000000042b6      0x3e0 freertos\list.o
 .debug_line    0x0000000000004696      0x595 freertos\portable\port.o
 .debug_line    0x0000000000004c2b      0x144 freertos\portable\portASM.o
 .debug_line    0x0000000000004d6f     0x11ce freertos\queue.o
 .debug_line    0x0000000000005f3d     0x1d5d freertos\tasks.o
 .debug_line    0x0000000000007c9a      0x9ca freertos\timers.o
 .debug_line    0x0000000000008664      0x47e source\freertos_lpuart.o
 .debug_line    0x0000000000008ae2      0x343 startup\startup_RV32M1_zero_riscy.o
 .debug_line    0x0000000000008e25      0x812 startup\system_RV32M1_zero_riscy.o
 .debug_line    0x0000000000009637      0x59b utilities\fsl_debug_console.o
 .debug_line    0x0000000000009bd2      0x3a5 utilities\fsl_io.o
 .debug_line    0x0000000000009f77      0x416 utilities\fsl_log.o
 .debug_line    0x000000000000a38d      0xad1 utilities\fsl_str.o

.debug_str      0x0000000000000000     0x6aa7
 .debug_str     0x0000000000000000     0x1285 board\board.o
                                       0x1324 (size before relaxing)
 .debug_str     0x0000000000001285      0xbd3 board\clock_config.o
                                       0x1ad6 (size before relaxing)
 .debug_str     0x0000000000001e58      0x195 board\pin_mux.o
                                        0xb07 (size before relaxing)
 .debug_str     0x0000000000001fed      0xb8c drivers\freertos\fsl_lpuart_freertos.o
                                       0x124f (size before relaxing)
 .debug_str     0x0000000000002b79      0x890 drivers\fsl_clock.o
                                       0x2069 (size before relaxing)
 .debug_str     0x0000000000003409       0x57 drivers\fsl_common.o
                                        0x654 (size before relaxing)
 .debug_str     0x0000000000003460      0x634 drivers\fsl_intmux.o
                                       0x155b (size before relaxing)
 .debug_str     0x0000000000003a94      0x69f drivers\fsl_lpuart.o
                                       0x2333 (size before relaxing)
 .debug_str     0x0000000000004133      0x3a3 freertos\event_groups.o
                                        0xa25 (size before relaxing)
 .debug_str     0x00000000000044d6      0x208 freertos\heap_4.o
                                        0xd13 (size before relaxing)
 .debug_str     0x00000000000046de       0xb9 freertos\list.o
                                        0x783 (size before relaxing)
 .debug_str     0x0000000000004797      0x1eb freertos\portable\port.o
                                       0x10f6 (size before relaxing)
 .debug_str     0x0000000000004982      0x532 freertos\queue.o
                                       0x1183 (size before relaxing)
 .debug_str     0x0000000000004eb4      0xc09 freertos\tasks.o
                                       0x1901 (size before relaxing)
 .debug_str     0x0000000000005abd      0x4f9 freertos\timers.o
                                       0x1143 (size before relaxing)
 .debug_str     0x0000000000005fb6       0xba source\freertos_lpuart.o
                                       0x2139 (size before relaxing)
 .debug_str     0x0000000000006070      0x448 startup\system_RV32M1_zero_riscy.o
                                       0x189b (size before relaxing)
 .debug_str     0x00000000000064b8      0x276 utilities\fsl_debug_console.o
                                        0x9aa (size before relaxing)
 .debug_str     0x000000000000672e       0x94 utilities\fsl_io.o
                                       0x12d5 (size before relaxing)
 .debug_str     0x00000000000067c2       0xa6 utilities\fsl_log.o
                                        0x7c5 (size before relaxing)
 .debug_str     0x0000000000006868      0x23f utilities\fsl_str.o
                                        0x89e (size before relaxing)

.comment        0x0000000000000000       0x1a
 .comment       0x0000000000000000       0x1a board\board.o
                                         0x1b (size before relaxing)
 .comment       0x000000000000001a       0x1b board\clock_config.o
 .comment       0x000000000000001a       0x1b board\pin_mux.o
 .comment       0x000000000000001a       0x1b drivers\freertos\fsl_lpuart_freertos.o
 .comment       0x000000000000001a       0x1b drivers\fsl_clock.o
 .comment       0x000000000000001a       0x1b drivers\fsl_common.o
 .comment       0x000000000000001a       0x1b drivers\fsl_intmux.o
 .comment       0x000000000000001a       0x1b drivers\fsl_lpuart.o
 .comment       0x000000000000001a       0x1b freertos\event_groups.o
 .comment       0x000000000000001a       0x1b freertos\heap_4.o
 .comment       0x000000000000001a       0x1b freertos\list.o
 .comment       0x000000000000001a       0x1b freertos\portable\port.o
 .comment       0x000000000000001a       0x1b freertos\queue.o
 .comment       0x000000000000001a       0x1b freertos\tasks.o
 .comment       0x000000000000001a       0x1b freertos\timers.o
 .comment       0x000000000000001a       0x1b source\freertos_lpuart.o
 .comment       0x000000000000001a       0x1b startup\system_RV32M1_zero_riscy.o
 .comment       0x000000000000001a       0x1b utilities\fsl_debug_console.o
 .comment       0x000000000000001a       0x1b utilities\fsl_io.o
 .comment       0x000000000000001a       0x1b utilities\fsl_log.o
 .comment       0x000000000000001a       0x1b utilities\fsl_str.o
 .comment       0x000000000000001a       0x1b c:/vega/toolchain/riscv32-unknown-elf-gcc/bin/../lib/gcc/riscv32-unknown-elf/7.1.1/../../../../riscv32-unknown-elf/lib\libc.a(lib_a-init.o)
 .comment       0x000000000000001a       0x1b c:/vega/toolchain/riscv32-unknown-elf-gcc/bin/../lib/gcc/riscv32-unknown-elf/7.1.1/../../../../riscv32-unknown-elf/lib\libc.a(lib_a-memcpy.o)
 .comment       0x000000000000001a       0x1b c:/vega/toolchain/riscv32-unknown-elf-gcc/bin/../lib/gcc/riscv32-unknown-elf/7.1.1/../../../../riscv32-unknown-elf/lib\libc.a(lib_a-strlen.o)

.Pulp_Chip.Info
                0x0000000000000000       0x4e
 .Pulp_Chip.Info
                0x0000000000000000       0x4e board\board.o
 .Pulp_Chip.Info
                0x000000000000004e        0x0 board\clock_config.o
 .Pulp_Chip.Info
                0x000000000000004e        0x0 board\pin_mux.o
 .Pulp_Chip.Info
                0x000000000000004e        0x0 drivers\freertos\fsl_lpuart_freertos.o
 .Pulp_Chip.Info
                0x000000000000004e        0x0 drivers\fsl_clock.o
 .Pulp_Chip.Info
                0x000000000000004e        0x0 drivers\fsl_common.o
 .Pulp_Chip.Info
                0x000000000000004e        0x0 drivers\fsl_intmux.o
 .Pulp_Chip.Info
                0x000000000000004e        0x0 drivers\fsl_lpuart.o
 .Pulp_Chip.Info
                0x000000000000004e        0x0 freertos\event_groups.o
 .Pulp_Chip.Info
                0x000000000000004e        0x0 freertos\heap_4.o
 .Pulp_Chip.Info
                0x000000000000004e        0x0 freertos\list.o
 .Pulp_Chip.Info
                0x000000000000004e        0x0 freertos\portable\port.o
 .Pulp_Chip.Info
                0x000000000000004e        0x0 freertos\portable\portASM.o
 .Pulp_Chip.Info
                0x000000000000004e        0x0 freertos\queue.o
 .Pulp_Chip.Info
                0x000000000000004e        0x0 freertos\tasks.o
 .Pulp_Chip.Info
                0x000000000000004e        0x0 freertos\timers.o
 .Pulp_Chip.Info
                0x000000000000004e        0x0 source\freertos_lpuart.o
 .Pulp_Chip.Info
                0x000000000000004e        0x0 startup\startup_RV32M1_zero_riscy.o
 .Pulp_Chip.Info
                0x000000000000004e        0x0 startup\system_RV32M1_zero_riscy.o
 .Pulp_Chip.Info
                0x000000000000004e        0x0 utilities\fsl_debug_console.o
 .Pulp_Chip.Info
                0x000000000000004e        0x0 utilities\fsl_io.o
 .Pulp_Chip.Info
                0x000000000000004e        0x0 utilities\fsl_log.o
 .Pulp_Chip.Info
                0x000000000000004e        0x0 utilities\fsl_str.o
 .Pulp_Chip.Info
                0x000000000000004e        0x0 c:/vega/toolchain/riscv32-unknown-elf-gcc/bin/../lib/gcc/riscv32-unknown-elf/7.1.1/../../../../riscv32-unknown-elf/lib\libc.a(lib_a-init.o)
 .Pulp_Chip.Info
                0x000000000000004e        0x0 c:/vega/toolchain/riscv32-unknown-elf-gcc/bin/../lib/gcc/riscv32-unknown-elf/7.1.1/../../../../riscv32-unknown-elf/lib\libc.a(lib_a-memcpy.o)
 .Pulp_Chip.Info
                0x000000000000004e        0x0 c:/vega/toolchain/riscv32-unknown-elf-gcc/bin/../lib/gcc/riscv32-unknown-elf/7.1.1/../../../../riscv32-unknown-elf/lib\libc.a(lib_a-memset.o)
 .Pulp_Chip.Info
                0x000000000000004e        0x0 c:/vega/toolchain/riscv32-unknown-elf-gcc/bin/../lib/gcc/riscv32-unknown-elf/7.1.1/../../../../riscv32-unknown-elf/lib\libc.a(lib_a-strlen.o)
