Archive member included to satisfy reference by file (symbol)

c:/vega/toolchain/riscv32-unknown-elf-gcc/bin/../lib/gcc/riscv32-unknown-elf/7.1.1/../../../../riscv32-unknown-elf/lib/rv32imcxpulpv2/ilp32\libc.a(lib_a-atoi.o)
                              drivers\fsl_lpuart.o (atoi)
c:/vega/toolchain/riscv32-unknown-elf-gcc/bin/../lib/gcc/riscv32-unknown-elf/7.1.1/../../../../riscv32-unknown-elf/lib/rv32imcxpulpv2/ilp32\libc.a(lib_a-init.o)
                              startup\startup_RV32M1_ri5cy.o (__libc_init_array)
c:/vega/toolchain/riscv32-unknown-elf-gcc/bin/../lib/gcc/riscv32-unknown-elf/7.1.1/../../../../riscv32-unknown-elf/lib/rv32imcxpulpv2/ilp32\libc.a(lib_a-memcpy.o)
                              freertos\queue.o (memcpy)
c:/vega/toolchain/riscv32-unknown-elf-gcc/bin/../lib/gcc/riscv32-unknown-elf/7.1.1/../../../../riscv32-unknown-elf/lib/rv32imcxpulpv2/ilp32\libc.a(lib_a-memset.o)
                              drivers\fsl_lpuart.o (memset)
c:/vega/toolchain/riscv32-unknown-elf-gcc/bin/../lib/gcc/riscv32-unknown-elf/7.1.1/../../../../riscv32-unknown-elf/lib/rv32imcxpulpv2/ilp32\libc.a(lib_a-strcat.o)
                              drivers\fsl_lpuart.o (strcat)
c:/vega/toolchain/riscv32-unknown-elf-gcc/bin/../lib/gcc/riscv32-unknown-elf/7.1.1/../../../../riscv32-unknown-elf/lib/rv32imcxpulpv2/ilp32\libc.a(lib_a-strcmp.o)
                              drivers\fsl_lpuart.o (strcmp)
c:/vega/toolchain/riscv32-unknown-elf-gcc/bin/../lib/gcc/riscv32-unknown-elf/7.1.1/../../../../riscv32-unknown-elf/lib/rv32imcxpulpv2/ilp32\libc.a(lib_a-strdup.o)
                              drivers\fsl_lpuart.o (strdup)
c:/vega/toolchain/riscv32-unknown-elf-gcc/bin/../lib/gcc/riscv32-unknown-elf/7.1.1/../../../../riscv32-unknown-elf/lib/rv32imcxpulpv2/ilp32\libc.a(lib_a-strdup_r.o)
                              c:/vega/toolchain/riscv32-unknown-elf-gcc/bin/../lib/gcc/riscv32-unknown-elf/7.1.1/../../../../riscv32-unknown-elf/lib/rv32imcxpulpv2/ilp32\libc.a(lib_a-strdup.o) (_strdup_r)
c:/vega/toolchain/riscv32-unknown-elf-gcc/bin/../lib/gcc/riscv32-unknown-elf/7.1.1/../../../../riscv32-unknown-elf/lib/rv32imcxpulpv2/ilp32\libc.a(lib_a-strlen.o)
                              utilities\fsl_str.o (strlen)
c:/vega/toolchain/riscv32-unknown-elf-gcc/bin/../lib/gcc/riscv32-unknown-elf/7.1.1/../../../../riscv32-unknown-elf/lib/rv32imcxpulpv2/ilp32\libc.a(lib_a-strncpy.o)
                              drivers\fsl_lpuart.o (strncpy)
c:/vega/toolchain/riscv32-unknown-elf-gcc/bin/../lib/gcc/riscv32-unknown-elf/7.1.1/../../../../riscv32-unknown-elf/lib/rv32imcxpulpv2/ilp32\libc.a(lib_a-strtol.o)
                              c:/vega/toolchain/riscv32-unknown-elf-gcc/bin/../lib/gcc/riscv32-unknown-elf/7.1.1/../../../../riscv32-unknown-elf/lib/rv32imcxpulpv2/ilp32\libc.a(lib_a-atoi.o) (_strtol_r)
c:/vega/toolchain/riscv32-unknown-elf-gcc/bin/../lib/gcc/riscv32-unknown-elf/7.1.1/../../../../riscv32-unknown-elf/lib/rv32imcxpulpv2/ilp32\libc.a(lib_a-impure.o)
                              c:/vega/toolchain/riscv32-unknown-elf-gcc/bin/../lib/gcc/riscv32-unknown-elf/7.1.1/../../../../riscv32-unknown-elf/lib/rv32imcxpulpv2/ilp32\libc.a(lib_a-strdup.o) (_impure_ptr)
c:/vega/toolchain/riscv32-unknown-elf-gcc/bin/../lib/gcc/riscv32-unknown-elf/7.1.1/../../../../riscv32-unknown-elf/lib/rv32imcxpulpv2/ilp32\libc.a(lib_a-locale.o)
                              c:/vega/toolchain/riscv32-unknown-elf-gcc/bin/../lib/gcc/riscv32-unknown-elf/7.1.1/../../../../riscv32-unknown-elf/lib/rv32imcxpulpv2/ilp32\libc.a(lib_a-strtol.o) (__locale_ctype_ptr_l)
c:/vega/toolchain/riscv32-unknown-elf-gcc/bin/../lib/gcc/riscv32-unknown-elf/7.1.1/../../../../riscv32-unknown-elf/lib/rv32imcxpulpv2/ilp32\libc.a(lib_a-mbtowc_r.o)
                              c:/vega/toolchain/riscv32-unknown-elf-gcc/bin/../lib/gcc/riscv32-unknown-elf/7.1.1/../../../../riscv32-unknown-elf/lib/rv32imcxpulpv2/ilp32\libc.a(lib_a-locale.o) (__ascii_mbtowc)
c:/vega/toolchain/riscv32-unknown-elf-gcc/bin/../lib/gcc/riscv32-unknown-elf/7.1.1/../../../../riscv32-unknown-elf/lib/rv32imcxpulpv2/ilp32\libc.a(lib_a-nano-mallocr.o)
                              c:/vega/toolchain/riscv32-unknown-elf-gcc/bin/../lib/gcc/riscv32-unknown-elf/7.1.1/../../../../riscv32-unknown-elf/lib/rv32imcxpulpv2/ilp32\libc.a(lib_a-strdup_r.o) (_malloc_r)
c:/vega/toolchain/riscv32-unknown-elf-gcc/bin/../lib/gcc/riscv32-unknown-elf/7.1.1/../../../../riscv32-unknown-elf/lib/rv32imcxpulpv2/ilp32\libc.a(lib_a-sbrkr.o)
                              c:/vega/toolchain/riscv32-unknown-elf-gcc/bin/../lib/gcc/riscv32-unknown-elf/7.1.1/../../../../riscv32-unknown-elf/lib/rv32imcxpulpv2/ilp32\libc.a(lib_a-nano-mallocr.o) (_sbrk_r)
c:/vega/toolchain/riscv32-unknown-elf-gcc/bin/../lib/gcc/riscv32-unknown-elf/7.1.1/../../../../riscv32-unknown-elf/lib/rv32imcxpulpv2/ilp32\libc.a(lib_a-wctomb_r.o)
                              c:/vega/toolchain/riscv32-unknown-elf-gcc/bin/../lib/gcc/riscv32-unknown-elf/7.1.1/../../../../riscv32-unknown-elf/lib/rv32imcxpulpv2/ilp32\libc.a(lib_a-locale.o) (__ascii_wctomb)
c:/vega/toolchain/riscv32-unknown-elf-gcc/bin/../lib/gcc/riscv32-unknown-elf/7.1.1/../../../../riscv32-unknown-elf/lib/rv32imcxpulpv2/ilp32\libc.a(lib_a-ctype_.o)
                              c:/vega/toolchain/riscv32-unknown-elf-gcc/bin/../lib/gcc/riscv32-unknown-elf/7.1.1/../../../../riscv32-unknown-elf/lib/rv32imcxpulpv2/ilp32\libc.a(lib_a-locale.o) (_ctype_)
c:/vega/toolchain/riscv32-unknown-elf-gcc/bin/../lib/gcc/riscv32-unknown-elf/7.1.1/../../../../riscv32-unknown-elf/lib/rv32imcxpulpv2/ilp32\libc.a(lib_a-mlock.o)
                              c:/vega/toolchain/riscv32-unknown-elf-gcc/bin/../lib/gcc/riscv32-unknown-elf/7.1.1/../../../../riscv32-unknown-elf/lib/rv32imcxpulpv2/ilp32\libc.a(lib_a-nano-mallocr.o) (__malloc_lock)
c:/vega/toolchain/riscv32-unknown-elf-gcc/bin/../lib/gcc/riscv32-unknown-elf/7.1.1/../../../../riscv32-unknown-elf/lib/rv32imcxpulpv2/ilp32\libc.a(lib_a-reent.o)
                              c:/vega/toolchain/riscv32-unknown-elf-gcc/bin/../lib/gcc/riscv32-unknown-elf/7.1.1/../../../../riscv32-unknown-elf/lib/rv32imcxpulpv2/ilp32\libc.a(lib_a-sbrkr.o) (errno)
c:/vega/toolchain/riscv32-unknown-elf-gcc/bin/../lib/gcc/riscv32-unknown-elf/7.1.1/../../../../riscv32-unknown-elf/lib/rv32imcxpulpv2/ilp32\libc.a(lib_a-nano-freer.o)
                              c:/vega/toolchain/riscv32-unknown-elf-gcc/bin/../lib/gcc/riscv32-unknown-elf/7.1.1/../../../../riscv32-unknown-elf/lib/rv32imcxpulpv2/ilp32\libc.a(lib_a-reent.o) (_free_r)
c:/vega/toolchain/riscv32-unknown-elf-gcc/bin/../lib/gcc/riscv32-unknown-elf/7.1.1/../../../../riscv32-unknown-elf/lib/rv32imcxpulpv2/ilp32\libnosys.a(sbrk.o)
                              c:/vega/toolchain/riscv32-unknown-elf-gcc/bin/../lib/gcc/riscv32-unknown-elf/7.1.1/../../../../riscv32-unknown-elf/lib/rv32imcxpulpv2/ilp32\libc.a(lib_a-sbrkr.o) (sbrk)

Allocating common symbols
Common symbol       size              file

errno               0x4               c:/vega/toolchain/riscv32-unknown-elf-gcc/bin/../lib/gcc/riscv32-unknown-elf/7.1.1/../../../../riscv32-unknown-elf/lib/rv32imcxpulpv2/ilp32\libc.a(lib_a-reent.o)

Discarded input sections

 .text          0x0000000000000000        0x0 board\board.o
 .data          0x0000000000000000        0x0 board\board.o
 .bss           0x0000000000000000        0x0 board\board.o
 .text          0x0000000000000000        0x0 board\clock_config.o
 .data          0x0000000000000000        0x0 board\clock_config.o
 .bss           0x0000000000000000        0x0 board\clock_config.o
 .text.CLOCK_SetVlprModeSysClkConfig
                0x0000000000000000       0x4c board\clock_config.o
 .text.CLOCK_SetHsrunModeSysClkConfig
                0x0000000000000000       0x4c board\clock_config.o
 .text.SMC_SetPowerModeProtection
                0x0000000000000000       0x22 board\clock_config.o
 .text.SMC_GetPowerModeState
                0x0000000000000000       0x1c board\clock_config.o
 .text.BOARD_InitBootClocks
                0x0000000000000000       0x1a board\clock_config.o
 .rodata.g_scgSysOscConfig_BOARD_BootClockRUN
                0x0000000000000000       0x18 board\clock_config.o
 .sdata.g_sysClkConfig_BOARD_BootClockHSRUN
                0x0000000000000000        0x4 board\clock_config.o
 .rodata.g_scgSysOscConfig_BOARD_BootClockHSRUN
                0x0000000000000000       0x18 board\clock_config.o
 .rodata.g_scgSircConfig_BOARD_BootClockHSRUN
                0x0000000000000000       0x14 board\clock_config.o
 .rodata.g_scgFircConfig_BOARD_BootClockHSRUN
                0x0000000000000000       0x18 board\clock_config.o
 .rodata.g_scgLpFllConfig_BOARD_BootClockHSRUN
                0x0000000000000000       0x18 board\clock_config.o
 .text.BOARD_BootClockHSRUN
                0x0000000000000000       0xb6 board\clock_config.o
 .sdata.g_sysClkConfig_BOARD_BootClockVLPR
                0x0000000000000000        0x4 board\clock_config.o
 .rodata.g_scgSysOscConfig_BOARD_BootClockVLPR
                0x0000000000000000       0x18 board\clock_config.o
 .rodata.g_scgSircConfig_BOARD_BootClockVLPR
                0x0000000000000000       0x14 board\clock_config.o
 .rodata.g_scgFircConfig_BOARD_BootClockVLPR
                0x0000000000000000       0x18 board\clock_config.o
 .rodata.g_scgLpFllConfig_BOARD_BootClockVLPR
                0x0000000000000000       0x18 board\clock_config.o
 .text.BOARD_BootClockVLPR
                0x0000000000000000       0xb2 board\clock_config.o
 .rodata.__func__.3444
                0x0000000000000000       0x1f board\clock_config.o
 .rodata.__func__.3436
                0x0000000000000000       0x1e board\clock_config.o
 .text          0x0000000000000000        0x0 board\pin_mux.o
 .data          0x0000000000000000        0x0 board\pin_mux.o
 .bss           0x0000000000000000        0x0 board\pin_mux.o
 .text.BOARD_InitBootPins
                0x0000000000000000       0x1a board\pin_mux.o
 .text          0x0000000000000000        0x0 drivers\fsl_clock.o
 .data          0x0000000000000000        0x0 drivers\fsl_clock.o
 .bss           0x0000000000000000        0x0 drivers\fsl_clock.o
 .text.CLOCK_EnableClock
                0x0000000000000000       0x56 drivers\fsl_clock.o
 .text.CLOCK_SetIpSrc
                0x0000000000000000       0xbc drivers\fsl_clock.o
 .text.CLOCK_GetLpoClkFreq
                0x0000000000000000       0x12 drivers\fsl_clock.o
 .text.CLOCK_GetCurSysClkConfig
                0x0000000000000000       0x4c drivers\fsl_clock.o
 .sbss.g_xtal32Freq
                0x0000000000000000        0x4 drivers\fsl_clock.o
 .text.CLOCK_GetOsc32kClkFreq
                0x0000000000000000       0x48 drivers\fsl_clock.o
 .text.CLOCK_GetFlashClkFreq
                0x0000000000000000       0x1e drivers\fsl_clock.o
 .text.CLOCK_GetBusClkFreq
                0x0000000000000000       0x1e drivers\fsl_clock.o
 .text.CLOCK_GetPlatClkFreq
                0x0000000000000000       0x1e drivers\fsl_clock.o
 .text.CLOCK_GetCoreSysClkFreq
                0x0000000000000000       0x1e drivers\fsl_clock.o
 .text.CLOCK_GetExtClkFreq
                0x0000000000000000       0x1e drivers\fsl_clock.o
 .text.CLOCK_GetFreq
                0x0000000000000000      0x194 drivers\fsl_clock.o
 .rodata.CLOCK_GetFreq
                0x0000000000000000       0x64 drivers\fsl_clock.o
 .text.CLOCK_EnableUsbfs0Clock
                0x0000000000000000       0xaa drivers\fsl_clock.o
 .text.CLOCK_GetSysClkFreq
                0x0000000000000000      0x11a drivers\fsl_clock.o
 .rodata.CLOCK_GetSysClkFreq
                0x0000000000000000       0x18 drivers\fsl_clock.o
 .text.CLOCK_InitSysOsc
                0x0000000000000000       0xdc drivers\fsl_clock.o
 .text.CLOCK_DeinitSysOsc
                0x0000000000000000       0x4c drivers\fsl_clock.o
 .text.CLOCK_GetRtcOscFreq
                0x0000000000000000       0x5c drivers\fsl_clock.o
 .rodata.__func__.3589
                0x0000000000000000       0x17 drivers\fsl_clock.o
 .rodata.__func__.3407
                0x0000000000000000        0xf drivers\fsl_clock.o
 .rodata.__func__.3393
                0x0000000000000000       0x12 drivers\fsl_clock.o
 .rodata.__func__.3464
                0x0000000000000000       0x19 drivers\fsl_clock.o
 .rodata.__func__.3673
                0x0000000000000000       0x11 drivers\fsl_clock.o
 .rodata.__func__.3752
                0x0000000000000000       0x14 drivers\fsl_clock.o
 .text          0x0000000000000000        0x0 drivers\fsl_common.o
 .data          0x0000000000000000        0x0 drivers\fsl_common.o
 .bss           0x0000000000000000        0x0 drivers\fsl_common.o
 .text          0x0000000000000000        0x0 drivers\fsl_gpio.o
 .data          0x0000000000000000        0x0 drivers\fsl_gpio.o
 .bss           0x0000000000000000        0x0 drivers\fsl_gpio.o
 .text.GPIO_WritePinOutput
                0x0000000000000000       0x44 drivers\fsl_gpio.o
 .rodata.s_portBases
                0x0000000000000000       0x14 drivers\fsl_gpio.o
 .rodata.s_gpioBases
                0x0000000000000000       0x14 drivers\fsl_gpio.o
 .rodata        0x0000000000000000       0x63 drivers\fsl_gpio.o
 .text.GPIO_GetInstance
                0x0000000000000000       0x80 drivers\fsl_gpio.o
 .text.GPIO_PinInit
                0x0000000000000000       0xa0 drivers\fsl_gpio.o
 .text.GPIO_GetPinsInterruptFlags
                0x0000000000000000       0x46 drivers\fsl_gpio.o
 .text.GPIO_ClearPinsInterruptFlags
                0x0000000000000000       0x4e drivers\fsl_gpio.o
 .rodata.__func__.3633
                0x0000000000000000       0x11 drivers\fsl_gpio.o
 .rodata.__func__.3639
                0x0000000000000000        0xd drivers\fsl_gpio.o
 .debug_frame   0x0000000000000000      0x134 drivers\fsl_gpio.o
 .debug_info    0x0000000000000000      0xde5 drivers\fsl_gpio.o
 .debug_abbrev  0x0000000000000000      0x261 drivers\fsl_gpio.o
 .debug_aranges
                0x0000000000000000       0x40 drivers\fsl_gpio.o
 .debug_ranges  0x0000000000000000       0x30 drivers\fsl_gpio.o
 .debug_line    0x0000000000000000      0x2d8 drivers\fsl_gpio.o
 .debug_str     0x0000000000000000      0xcbc drivers\fsl_gpio.o
 .comment       0x0000000000000000       0x1b drivers\fsl_gpio.o
 .Pulp_Chip.Info
                0x0000000000000000        0x0 drivers\fsl_gpio.o
 .text          0x0000000000000000        0x0 drivers\fsl_lpuart.o
 .data          0x0000000000000000        0x0 drivers\fsl_lpuart.o
 .bss           0x0000000000000000        0x0 drivers\fsl_lpuart.o
 .text.CLOCK_DisableClock
                0x0000000000000000       0x58 drivers\fsl_lpuart.o
 .text.EnableIRQ
                0x0000000000000000       0x52 drivers\fsl_lpuart.o
 .rodata.s_lpuartIRQ
                0x0000000000000000       0x10 drivers\fsl_lpuart.o
 .text.LPUART_TransferGetRxRingBufferLength
                0x0000000000000000       0xb0 drivers\fsl_lpuart.o
 .text.LPUART_TransferIsRxRingBufferFull
                0x0000000000000000       0x72 drivers\fsl_lpuart.o
 .text.LPUART_WriteNonBlocking
                0x0000000000000000       0x7a drivers\fsl_lpuart.o
 .text.LPUART_ReadNonBlocking
                0x0000000000000000       0xf0 drivers\fsl_lpuart.o
 .text.LPUART_Deinit
                0x0000000000000000       0xa0 drivers\fsl_lpuart.o
 .text.LPUART_SetBaudRate
                0x0000000000000000      0x1fe drivers\fsl_lpuart.o
 .text.LPUART_EnableInterrupts
                0x0000000000000000       0x6e drivers\fsl_lpuart.o
 .text.LPUART_DisableInterrupts
                0x0000000000000000       0x7a drivers\fsl_lpuart.o
 .text.LPUART_GetEnabledInterrupts
                0x0000000000000000       0x52 drivers\fsl_lpuart.o
 .text.LPUART_TransferCreateHandle
                0x0000000000000000      0x12e drivers\fsl_lpuart.o
 .text.LPUART_TransferStartRingBuffer
                0x0000000000000000       0xaa drivers\fsl_lpuart.o
 .text.LPUART_TransferStopRingBuffer
                0x0000000000000000       0x84 drivers\fsl_lpuart.o
 .text.LPUART_TransferSendNonBlocking
                0x0000000000000000      0x12a drivers\fsl_lpuart.o
 .text.LPUART_TransferAbortSend
                0x0000000000000000       0x64 drivers\fsl_lpuart.o
 .text.LPUART_TransferGetSendCount
                0x0000000000000000       0x9a drivers\fsl_lpuart.o
 .text.LPUART_TransferReceiveNonBlocking
                0x0000000000000000      0x2a2 drivers\fsl_lpuart.o
 .text.LPUART_TransferAbortReceive
                0x0000000000000000       0x6e drivers\fsl_lpuart.o
 .text.LPUART_TransferGetReceiveCount
                0x0000000000000000       0x9c drivers\fsl_lpuart.o
 .text.LPUART_TransferHandleIRQ
                0x0000000000000000      0x520 drivers\fsl_lpuart.o
 .text.LPUART_TransferHandleErrorIRQ
                0x0000000000000000       0x16 drivers\fsl_lpuart.o
 .text.reset_handler
                0x0000000000000000       0x62 drivers\fsl_lpuart.o
 .text.stream_ok
                0x0000000000000000       0x16 drivers\fsl_lpuart.o
 .text.get_stream
                0x0000000000000000       0x86 drivers\fsl_lpuart.o
 .rodata.__func__.4849
                0x0000000000000000       0x25 drivers\fsl_lpuart.o
 .rodata.__func__.4855
                0x0000000000000000       0x22 drivers\fsl_lpuart.o
 .rodata.__func__.4862
                0x0000000000000000       0x18 drivers\fsl_lpuart.o
 .rodata.__func__.4872
                0x0000000000000000       0x17 drivers\fsl_lpuart.o
 .rodata.__func__.3381
                0x0000000000000000       0x13 drivers\fsl_lpuart.o
 .rodata.__func__.4917
                0x0000000000000000       0x13 drivers\fsl_lpuart.o
 .rodata.__func__.4985
                0x0000000000000000       0x1c drivers\fsl_lpuart.o
 .rodata.__func__.4995
                0x0000000000000000       0x1f drivers\fsl_lpuart.o
 .rodata.__func__.5000
                0x0000000000000000       0x1e drivers\fsl_lpuart.o
 .rodata.__func__.5006
                0x0000000000000000       0x1f drivers\fsl_lpuart.o
 .rodata.__func__.5012
                0x0000000000000000       0x19 drivers\fsl_lpuart.o
 .rodata.__func__.5018
                0x0000000000000000       0x1c drivers\fsl_lpuart.o
 .rodata.__func__.5025
                0x0000000000000000       0x22 drivers\fsl_lpuart.o
 .rodata.__func__.5038
                0x0000000000000000       0x1c drivers\fsl_lpuart.o
 .rodata.__func__.5044
                0x0000000000000000       0x1f drivers\fsl_lpuart.o
 .rodata.__func__.5049
                0x0000000000000000       0x19 drivers\fsl_lpuart.o
 .text          0x0000000000000000        0x0 drivers\fsl_msmc.o
 .data          0x0000000000000000        0x0 drivers\fsl_msmc.o
 .bss           0x0000000000000000        0x0 drivers\fsl_msmc.o
 .text.SMC_SetPowerModeRun
                0x0000000000000000       0x34 drivers\fsl_msmc.o
 .text.SMC_SetPowerModeHsrun
                0x0000000000000000       0x40 drivers\fsl_msmc.o
 .text.SMC_SetPowerModeWait
                0x0000000000000000       0x34 drivers\fsl_msmc.o
 .text.SMC_SetPowerModeStop
                0x0000000000000000       0x6e drivers\fsl_msmc.o
 .text.SMC_SetPowerModeVlpr
                0x0000000000000000       0x40 drivers\fsl_msmc.o
 .text.SMC_SetPowerModeVlpw
                0x0000000000000000       0x34 drivers\fsl_msmc.o
 .text.SMC_SetPowerModeVlps
                0x0000000000000000       0x62 drivers\fsl_msmc.o
 .text.SMC_SetPowerModeLls
                0x0000000000000000       0x62 drivers\fsl_msmc.o
 .text.SMC_SetPowerModeVlls0
                0x0000000000000000       0x62 drivers\fsl_msmc.o
 .text.SMC_SetPowerModeVlls2
                0x0000000000000000       0x62 drivers\fsl_msmc.o
 .rodata        0x0000000000000000       0x3f drivers\fsl_msmc.o
 .text.SMC_ConfigureResetPinFilter
                0x0000000000000000       0x6e drivers\fsl_msmc.o
 .rodata.__func__.3770
                0x0000000000000000       0x1c drivers\fsl_msmc.o
 .debug_frame   0x0000000000000000      0x254 drivers\fsl_msmc.o
 .debug_info    0x0000000000000000     0x1025 drivers\fsl_msmc.o
 .debug_abbrev  0x0000000000000000      0x25e drivers\fsl_msmc.o
 .debug_aranges
                0x0000000000000000       0x70 drivers\fsl_msmc.o
 .debug_ranges  0x0000000000000000       0x60 drivers\fsl_msmc.o
 .debug_line    0x0000000000000000      0x4d6 drivers\fsl_msmc.o
 .debug_str     0x0000000000000000      0xa88 drivers\fsl_msmc.o
 .comment       0x0000000000000000       0x1b drivers\fsl_msmc.o
 .Pulp_Chip.Info
                0x0000000000000000        0x0 drivers\fsl_msmc.o
 .text          0x0000000000000000        0x0 freertos\croutine.o
 .data          0x0000000000000000        0x0 freertos\croutine.o
 .bss           0x0000000000000000        0x0 freertos\croutine.o
 .debug_info    0x0000000000000000      0x8cd freertos\croutine.o
 .debug_abbrev  0x0000000000000000      0x192 freertos\croutine.o
 .debug_aranges
                0x0000000000000000       0x18 freertos\croutine.o
 .debug_line    0x0000000000000000      0x1c6 freertos\croutine.o
 .debug_str     0x0000000000000000      0x63c freertos\croutine.o
 .comment       0x0000000000000000       0x1b freertos\croutine.o
 .Pulp_Chip.Info
                0x0000000000000000        0x0 freertos\croutine.o
 .text          0x0000000000000000        0x0 freertos\event_groups.o
 .data          0x0000000000000000        0x0 freertos\event_groups.o
 .bss           0x0000000000000000        0x0 freertos\event_groups.o
 .text.xEventGroupCreate
                0x0000000000000000       0x42 freertos\event_groups.o
 .text.xEventGroupSync
                0x0000000000000000      0x1a8 freertos\event_groups.o
 .text.xEventGroupWaitBits
                0x0000000000000000      0x1e6 freertos\event_groups.o
 .text.xEventGroupClearBits
                0x0000000000000000       0x7c freertos\event_groups.o
 .text.xEventGroupClearBitsFromISR
                0x0000000000000000       0x3c freertos\event_groups.o
 .text.xEventGroupGetBitsFromISR
                0x0000000000000000       0x44 freertos\event_groups.o
 .text.xEventGroupSetBits
                0x0000000000000000      0x16e freertos\event_groups.o
 .text.vEventGroupDelete
                0x0000000000000000       0x7c freertos\event_groups.o
 .text.vEventGroupSetBitsCallback
                0x0000000000000000       0x2a freertos\event_groups.o
 .text.vEventGroupClearBitsCallback
                0x0000000000000000       0x2a freertos\event_groups.o
 .text.prvTestWaitCondition
                0x0000000000000000       0x54 freertos\event_groups.o
 .text.xEventGroupSetBitsFromISR
                0x0000000000000000       0x42 freertos\event_groups.o
 .text.uxEventGroupGetNumber
                0x0000000000000000       0x34 freertos\event_groups.o
 .debug_frame   0x0000000000000000      0x30c freertos\event_groups.o
 .debug_info    0x0000000000000000      0xf49 freertos\event_groups.o
 .debug_abbrev  0x0000000000000000      0x27d freertos\event_groups.o
 .debug_aranges
                0x0000000000000000       0x80 freertos\event_groups.o
 .debug_ranges  0x0000000000000000       0x70 freertos\event_groups.o
 .debug_line    0x0000000000000000      0x85d freertos\event_groups.o
 .debug_str     0x0000000000000000      0xa17 freertos\event_groups.o
 .comment       0x0000000000000000       0x1b freertos\event_groups.o
 .Pulp_Chip.Info
                0x0000000000000000        0x0 freertos\event_groups.o
 .text          0x0000000000000000        0x0 freertos\heap_4.o
 .data          0x0000000000000000        0x0 freertos\heap_4.o
 .bss           0x0000000000000000        0x0 freertos\heap_4.o
 .sdata.xHeapStructSize
                0x0000000000000000        0x4 freertos\heap_4.o
 .text.xPortGetFreeHeapSize
                0x0000000000000000       0x16 freertos\heap_4.o
 .text.xPortGetMinimumEverFreeHeapSize
                0x0000000000000000       0x16 freertos\heap_4.o
 .text.vPortInitialiseBlocks
                0x0000000000000000        0xe freertos\heap_4.o
 .text          0x0000000000000000        0x0 freertos\list.o
 .data          0x0000000000000000        0x0 freertos\list.o
 .bss           0x0000000000000000        0x0 freertos\list.o
 .text          0x0000000000000000        0x0 freertos\portable\port.o
 .data          0x0000000000000000        0x0 freertos\portable\port.o
 .bss           0x0000000000000000        0x0 freertos\portable\port.o
 .text.portYIELD_FROM_ISR
                0x0000000000000000       0x22 freertos\portable\port.o
 .text.vPortEndScheduler
                0x0000000000000000       0x12 freertos\portable\port.o
 .bss           0x0000000000000000        0x0 freertos\portable\portASM.o
 .text          0x0000000000000000        0x0 freertos\queue.o
 .data          0x0000000000000000        0x0 freertos\queue.o
 .bss           0x0000000000000000        0x0 freertos\queue.o
 .text.prvInitialiseMutex
                0x0000000000000000       0x46 freertos\queue.o
 .text.xQueueCreateMutex
                0x0000000000000000       0x4c freertos\queue.o
 .text.xQueueGiveMutexRecursive
                0x0000000000000000       0x80 freertos\queue.o
 .text.xQueueTakeMutexRecursive
                0x0000000000000000       0x94 freertos\queue.o
 .text.xQueueCreateCountingSemaphore
                0x0000000000000000       0x68 freertos\queue.o
 .text.xQueueGiveFromISR
                0x0000000000000000      0x10c freertos\queue.o
 .text.xQueueReceiveFromISR
                0x0000000000000000      0x102 freertos\queue.o
 .text.xQueuePeekFromISR
                0x0000000000000000       0xb8 freertos\queue.o
 .text.uxQueueMessagesWaiting
                0x0000000000000000       0x44 freertos\queue.o
 .text.uxQueueSpacesAvailable
                0x0000000000000000       0x56 freertos\queue.o
 .text.uxQueueMessagesWaitingFromISR
                0x0000000000000000       0x34 freertos\queue.o
 .text.vQueueDelete
                0x0000000000000000       0x46 freertos\queue.o
 .text.uxQueueGetQueueNumber
                0x0000000000000000       0x18 freertos\queue.o
 .text.vQueueSetQueueNumber
                0x0000000000000000       0x20 freertos\queue.o
 .text.ucQueueGetQueueType
                0x0000000000000000       0x1a freertos\queue.o
 .text.xQueueIsQueueEmptyFromISR
                0x0000000000000000       0x3e freertos\queue.o
 .text.xQueueIsQueueFullFromISR
                0x0000000000000000       0x46 freertos\queue.o
 .text.pcQueueGetName
                0x0000000000000000       0x66 freertos\queue.o
 .text.vQueueUnregisterQueue
                0x0000000000000000       0x70 freertos\queue.o
 .text          0x0000000000000000        0x0 freertos\tasks.o
 .data          0x0000000000000000        0x0 freertos\tasks.o
 .bss           0x0000000000000000        0x0 freertos\tasks.o
 .text.vTaskDelete
                0x0000000000000000      0x116 freertos\tasks.o
 .text.vTaskDelayUntil
                0x0000000000000000      0x108 freertos\tasks.o
 .text.vTaskDelay
                0x0000000000000000       0x64 freertos\tasks.o
 .text.eTaskGetState
                0x0000000000000000       0xd6 freertos\tasks.o
 .text.uxTaskPriorityGet
                0x0000000000000000       0x4c freertos\tasks.o
 .text.uxTaskPriorityGetFromISR
                0x0000000000000000       0x54 freertos\tasks.o
 .text.vApplicationGetIdleTaskMemory
                0x0000000000000000       0x40 freertos\tasks.o
 .text.vApplicationGetTimerTaskMemory
                0x0000000000000000       0x40 freertos\tasks.o
 .text.vTaskPrioritySet
                0x0000000000000000      0x1a2 freertos\tasks.o
 .text.prvTaskIsTaskSuspended
                0x0000000000000000       0x78 freertos\tasks.o
 .text.vTaskResume
                0x0000000000000000       0xda freertos\tasks.o
 .text.xTaskResumeFromISR
                0x0000000000000000       0xf6 freertos\tasks.o
 .text.vTaskEndScheduler
                0x0000000000000000       0x2a freertos\tasks.o
 .text.xTaskGetTickCountFromISR
                0x0000000000000000       0x3a freertos\tasks.o
 .text.uxTaskGetNumberOfTasks
                0x0000000000000000       0x16 freertos\tasks.o
 .text.pcTaskGetName
                0x0000000000000000       0x46 freertos\tasks.o
 .text.uxTaskGetSystemState
                0x0000000000000000      0x184 freertos\tasks.o
 .text.vTaskPlaceOnUnorderedEventList
                0x0000000000000000       0x7c freertos\tasks.o
 .text.xTaskRemoveFromUnorderedEventList
                0x0000000000000000       0xec freertos\tasks.o
 .text.uxTaskGetTaskNumber
                0x0000000000000000       0x34 freertos\tasks.o
 .text.vTaskSetTaskNumber
                0x0000000000000000       0x2e freertos\tasks.o
 .text.vTaskSetThreadLocalStoragePointer
                0x0000000000000000       0x50 freertos\tasks.o
 .text.pvTaskGetThreadLocalStoragePointer
                0x0000000000000000       0x5a freertos\tasks.o
 .text.vTaskGetInfo
                0x0000000000000000      0x108 freertos\tasks.o
 .text.prvListTasksWithinSingleList
                0x0000000000000000       0xec freertos\tasks.o
 .text.prvTaskCheckFreeStackSpace
                0x0000000000000000       0x4e freertos\tasks.o
 .text.xTaskGetCurrentTaskHandle
                0x0000000000000000       0x1e freertos\tasks.o
 .text.uxTaskResetEventItemValue
                0x0000000000000000       0x3a freertos\tasks.o
 .text.ulTaskNotifyTake
                0x0000000000000000       0xb8 freertos\tasks.o
 .text.xTaskNotifyWait
                0x0000000000000000       0xf2 freertos\tasks.o
 .text.xTaskGenericNotify
                0x0000000000000000      0x17a freertos\tasks.o
 .rodata.xTaskGenericNotify
                0x0000000000000000       0x14 freertos\tasks.o
 .text.xTaskGenericNotifyFromISR
                0x0000000000000000      0x1bc freertos\tasks.o
 .rodata.xTaskGenericNotifyFromISR
                0x0000000000000000       0x14 freertos\tasks.o
 .text.vTaskNotifyGiveFromISR
                0x0000000000000000      0x136 freertos\tasks.o
 .text.xTaskNotifyStateClear
                0x0000000000000000       0x66 freertos\tasks.o
 .bss.xIdleTaskTCB.4514
                0x0000000000000000       0x78 freertos\tasks.o
 .bss.uxIdleTaskStack.4515
                0x0000000000000000      0x400 freertos\tasks.o
 .bss.xTimerTaskTCB.4521
                0x0000000000000000       0x78 freertos\tasks.o
 .bss.uxTimerTaskStack.4522
                0x0000000000000000      0x800 freertos\tasks.o
 .text          0x0000000000000000        0x0 freertos\timers.o
 .data          0x0000000000000000        0x0 freertos\timers.o
 .bss           0x0000000000000000        0x0 freertos\timers.o
 .text.xTimerCreate
                0x0000000000000000       0x60 freertos\timers.o
 .text.prvInitialiseNewTimer
                0x0000000000000000       0x8a freertos\timers.o
 .text.xTimerGetTimerDaemonTaskHandle
                0x0000000000000000       0x2e freertos\timers.o
 .text.xTimerGetPeriod
                0x0000000000000000       0x34 freertos\timers.o
 .text.xTimerGetExpiryTime
                0x0000000000000000       0x3c freertos\timers.o
 .text.pcTimerGetName
                0x0000000000000000       0x34 freertos\timers.o
 .text.xTimerIsTimerActive
                0x0000000000000000       0x54 freertos\timers.o
 .text.pvTimerGetTimerID
                0x0000000000000000       0x4c freertos\timers.o
 .text.vTimerSetTimerID
                0x0000000000000000       0x4c freertos\timers.o
 .text.xTimerPendFunctionCallFromISR
                0x0000000000000000       0x66 freertos\timers.o
 .text.xTimerPendFunctionCall
                0x0000000000000000       0x7a freertos\timers.o
 .text          0x0000000000000000        0x0 source\freertos_hello.o
 .data          0x0000000000000000        0x0 source\freertos_hello.o
 .bss           0x0000000000000000        0x0 source\freertos_hello.o
 .text          0x0000000000000000        0x0 startup\startup_RV32M1_ri5cy.o
 .data          0x0000000000000000        0x0 startup\startup_RV32M1_ri5cy.o
 .bss           0x0000000000000000        0x0 startup\startup_RV32M1_ri5cy.o
 .text          0x0000000000000000        0x0 startup\system_RV32M1_ri5cy.o
 .data          0x0000000000000000        0x0 startup\system_RV32M1_ri5cy.o
 .bss           0x0000000000000000        0x0 startup\system_RV32M1_ri5cy.o
 .text.SystemCoreClockUpdate
                0x0000000000000000       0xe4 startup\system_RV32M1_ri5cy.o
 .text.SystemGetIRQNestingLevel
                0x0000000000000000       0x16 startup\system_RV32M1_ri5cy.o
 .text.EVENT_GetIRQPriority
                0x0000000000000000       0x66 startup\system_RV32M1_ri5cy.o
 .text.SystemInISR
                0x0000000000000000       0x1c startup\system_RV32M1_ri5cy.o
 .text.EVENT_SystemReset
                0x0000000000000000       0x24 startup\system_RV32M1_ri5cy.o
 .text          0x0000000000000000        0x0 utilities\fsl_debug_console.o
 .data          0x0000000000000000        0x0 utilities\fsl_debug_console.o
 .bss           0x0000000000000000        0x0 utilities\fsl_debug_console.o
 .text.DbgConsole_Deinit
                0x0000000000000000       0x1c utilities\fsl_debug_console.o
 .text.DbgConsole_Flush
                0x0000000000000000       0x1c utilities\fsl_debug_console.o
 .text.DbgConsole_Putchar
                0x0000000000000000       0x28 utilities\fsl_debug_console.o
 .text.DbgConsole_Scanf
                0x0000000000000000       0x8a utilities\fsl_debug_console.o
 .text.DbgConsole_Getchar
                0x0000000000000000       0x24 utilities\fsl_debug_console.o
 .text._write   0x0000000000000000       0x52 utilities\fsl_debug_console.o
 .text._read    0x0000000000000000       0x3c utilities\fsl_debug_console.o
 .text.isatty   0x0000000000000000       0x14 utilities\fsl_debug_console.o
 .text.fstat    0x0000000000000000       0x20 utilities\fsl_debug_console.o
 .text.lseek    0x0000000000000000       0x1c utilities\fsl_debug_console.o
 .text.close    0x0000000000000000       0x14 utilities\fsl_debug_console.o
 .text.read     0x0000000000000000       0x3a utilities\fsl_debug_console.o
 .text.write    0x0000000000000000       0x50 utilities\fsl_debug_console.o
 .text          0x0000000000000000        0x0 utilities\fsl_io.o
 .data          0x0000000000000000        0x0 utilities\fsl_io.o
 .bss           0x0000000000000000        0x0 utilities\fsl_io.o
 .text.IO_Deinit
                0x0000000000000000       0x66 utilities\fsl_io.o
 .text.IO_WaitIdle
                0x0000000000000000       0x48 utilities\fsl_io.o
 .text          0x0000000000000000        0x0 utilities\fsl_log.o
 .data          0x0000000000000000        0x0 utilities\fsl_log.o
 .bss           0x0000000000000000        0x0 utilities\fsl_log.o
 .text.LOG_Deinit
                0x0000000000000000       0x1a utilities\fsl_log.o
 .text.LOG_WaitIdle
                0x0000000000000000       0x1c utilities\fsl_log.o
 .text.LOG_ReadLine
                0x0000000000000000       0xf2 utilities\fsl_log.o
 .text.LOG_ReadCharacter
                0x0000000000000000       0x66 utilities\fsl_log.o
 .text.LOG_ReadOneCharacter
                0x0000000000000000       0x30 utilities\fsl_log.o
 .rodata.__func__.4104
                0x0000000000000000        0xd utilities\fsl_log.o
 .rodata.__func__.4112
                0x0000000000000000       0x12 utilities\fsl_log.o
 .text          0x0000000000000000        0x0 utilities\fsl_str.o
 .data          0x0000000000000000        0x0 utilities\fsl_str.o
 .bss           0x0000000000000000        0x0 utilities\fsl_str.o
 .text.ScanIgnoreWhiteSpace
                0x0000000000000000       0x86 utilities\fsl_str.o
 .text.StrFormatScanf
                0x0000000000000000      0x6ee utilities\fsl_str.o
 .rodata.StrFormatScanf
                0x0000000000000000      0x124 utilities\fsl_str.o
 .data          0x0000000000000000        0x0 c:/vega/toolchain/riscv32-unknown-elf-gcc/bin/../lib/gcc/riscv32-unknown-elf/7.1.1/../../../../riscv32-unknown-elf/lib/rv32imcxpulpv2/ilp32\libc.a(lib_a-atoi.o)
 .bss           0x0000000000000000        0x0 c:/vega/toolchain/riscv32-unknown-elf-gcc/bin/../lib/gcc/riscv32-unknown-elf/7.1.1/../../../../riscv32-unknown-elf/lib/rv32imcxpulpv2/ilp32\libc.a(lib_a-atoi.o)
 .data          0x0000000000000000        0x0 c:/vega/toolchain/riscv32-unknown-elf-gcc/bin/../lib/gcc/riscv32-unknown-elf/7.1.1/../../../../riscv32-unknown-elf/lib/rv32imcxpulpv2/ilp32\libc.a(lib_a-init.o)
 .bss           0x0000000000000000        0x0 c:/vega/toolchain/riscv32-unknown-elf-gcc/bin/../lib/gcc/riscv32-unknown-elf/7.1.1/../../../../riscv32-unknown-elf/lib/rv32imcxpulpv2/ilp32\libc.a(lib_a-init.o)
 .data          0x0000000000000000        0x0 c:/vega/toolchain/riscv32-unknown-elf-gcc/bin/../lib/gcc/riscv32-unknown-elf/7.1.1/../../../../riscv32-unknown-elf/lib/rv32imcxpulpv2/ilp32\libc.a(lib_a-memcpy.o)
 .bss           0x0000000000000000        0x0 c:/vega/toolchain/riscv32-unknown-elf-gcc/bin/../lib/gcc/riscv32-unknown-elf/7.1.1/../../../../riscv32-unknown-elf/lib/rv32imcxpulpv2/ilp32\libc.a(lib_a-memcpy.o)
 .data          0x0000000000000000        0x0 c:/vega/toolchain/riscv32-unknown-elf-gcc/bin/../lib/gcc/riscv32-unknown-elf/7.1.1/../../../../riscv32-unknown-elf/lib/rv32imcxpulpv2/ilp32\libc.a(lib_a-memset.o)
 .bss           0x0000000000000000        0x0 c:/vega/toolchain/riscv32-unknown-elf-gcc/bin/../lib/gcc/riscv32-unknown-elf/7.1.1/../../../../riscv32-unknown-elf/lib/rv32imcxpulpv2/ilp32\libc.a(lib_a-memset.o)
 .text          0x0000000000000000       0x1c c:/vega/toolchain/riscv32-unknown-elf-gcc/bin/../lib/gcc/riscv32-unknown-elf/7.1.1/../../../../riscv32-unknown-elf/lib/rv32imcxpulpv2/ilp32\libc.a(lib_a-strcat.o)
 .data          0x0000000000000000        0x0 c:/vega/toolchain/riscv32-unknown-elf-gcc/bin/../lib/gcc/riscv32-unknown-elf/7.1.1/../../../../riscv32-unknown-elf/lib/rv32imcxpulpv2/ilp32\libc.a(lib_a-strcat.o)
 .bss           0x0000000000000000        0x0 c:/vega/toolchain/riscv32-unknown-elf-gcc/bin/../lib/gcc/riscv32-unknown-elf/7.1.1/../../../../riscv32-unknown-elf/lib/rv32imcxpulpv2/ilp32\libc.a(lib_a-strcat.o)
 .comment       0x0000000000000000       0x1b c:/vega/toolchain/riscv32-unknown-elf-gcc/bin/../lib/gcc/riscv32-unknown-elf/7.1.1/../../../../riscv32-unknown-elf/lib/rv32imcxpulpv2/ilp32\libc.a(lib_a-strcat.o)
 .Pulp_Chip.Info
                0x0000000000000000        0x0 c:/vega/toolchain/riscv32-unknown-elf-gcc/bin/../lib/gcc/riscv32-unknown-elf/7.1.1/../../../../riscv32-unknown-elf/lib/rv32imcxpulpv2/ilp32\libc.a(lib_a-strcat.o)
 .data          0x0000000000000000        0x0 c:/vega/toolchain/riscv32-unknown-elf-gcc/bin/../lib/gcc/riscv32-unknown-elf/7.1.1/../../../../riscv32-unknown-elf/lib/rv32imcxpulpv2/ilp32\libc.a(lib_a-strcmp.o)
 .bss           0x0000000000000000        0x0 c:/vega/toolchain/riscv32-unknown-elf-gcc/bin/../lib/gcc/riscv32-unknown-elf/7.1.1/../../../../riscv32-unknown-elf/lib/rv32imcxpulpv2/ilp32\libc.a(lib_a-strcmp.o)
 .text          0x0000000000000000       0x12 c:/vega/toolchain/riscv32-unknown-elf-gcc/bin/../lib/gcc/riscv32-unknown-elf/7.1.1/../../../../riscv32-unknown-elf/lib/rv32imcxpulpv2/ilp32\libc.a(lib_a-strdup.o)
 .data          0x0000000000000000        0x0 c:/vega/toolchain/riscv32-unknown-elf-gcc/bin/../lib/gcc/riscv32-unknown-elf/7.1.1/../../../../riscv32-unknown-elf/lib/rv32imcxpulpv2/ilp32\libc.a(lib_a-strdup.o)
 .bss           0x0000000000000000        0x0 c:/vega/toolchain/riscv32-unknown-elf-gcc/bin/../lib/gcc/riscv32-unknown-elf/7.1.1/../../../../riscv32-unknown-elf/lib/rv32imcxpulpv2/ilp32\libc.a(lib_a-strdup.o)
 .comment       0x0000000000000000       0x1b c:/vega/toolchain/riscv32-unknown-elf-gcc/bin/../lib/gcc/riscv32-unknown-elf/7.1.1/../../../../riscv32-unknown-elf/lib/rv32imcxpulpv2/ilp32\libc.a(lib_a-strdup.o)
 .Pulp_Chip.Info
                0x0000000000000000        0x0 c:/vega/toolchain/riscv32-unknown-elf-gcc/bin/../lib/gcc/riscv32-unknown-elf/7.1.1/../../../../riscv32-unknown-elf/lib/rv32imcxpulpv2/ilp32\libc.a(lib_a-strdup.o)
 .text          0x0000000000000000       0x44 c:/vega/toolchain/riscv32-unknown-elf-gcc/bin/../lib/gcc/riscv32-unknown-elf/7.1.1/../../../../riscv32-unknown-elf/lib/rv32imcxpulpv2/ilp32\libc.a(lib_a-strdup_r.o)
 .data          0x0000000000000000        0x0 c:/vega/toolchain/riscv32-unknown-elf-gcc/bin/../lib/gcc/riscv32-unknown-elf/7.1.1/../../../../riscv32-unknown-elf/lib/rv32imcxpulpv2/ilp32\libc.a(lib_a-strdup_r.o)
 .bss           0x0000000000000000        0x0 c:/vega/toolchain/riscv32-unknown-elf-gcc/bin/../lib/gcc/riscv32-unknown-elf/7.1.1/../../../../riscv32-unknown-elf/lib/rv32imcxpulpv2/ilp32\libc.a(lib_a-strdup_r.o)
 .comment       0x0000000000000000       0x1b c:/vega/toolchain/riscv32-unknown-elf-gcc/bin/../lib/gcc/riscv32-unknown-elf/7.1.1/../../../../riscv32-unknown-elf/lib/rv32imcxpulpv2/ilp32\libc.a(lib_a-strdup_r.o)
 .Pulp_Chip.Info
                0x0000000000000000        0x0 c:/vega/toolchain/riscv32-unknown-elf-gcc/bin/../lib/gcc/riscv32-unknown-elf/7.1.1/../../../../riscv32-unknown-elf/lib/rv32imcxpulpv2/ilp32\libc.a(lib_a-strdup_r.o)
 .data          0x0000000000000000        0x0 c:/vega/toolchain/riscv32-unknown-elf-gcc/bin/../lib/gcc/riscv32-unknown-elf/7.1.1/../../../../riscv32-unknown-elf/lib/rv32imcxpulpv2/ilp32\libc.a(lib_a-strlen.o)
 .bss           0x0000000000000000        0x0 c:/vega/toolchain/riscv32-unknown-elf-gcc/bin/../lib/gcc/riscv32-unknown-elf/7.1.1/../../../../riscv32-unknown-elf/lib/rv32imcxpulpv2/ilp32\libc.a(lib_a-strlen.o)
 .data          0x0000000000000000        0x0 c:/vega/toolchain/riscv32-unknown-elf-gcc/bin/../lib/gcc/riscv32-unknown-elf/7.1.1/../../../../riscv32-unknown-elf/lib/rv32imcxpulpv2/ilp32\libc.a(lib_a-strncpy.o)
 .bss           0x0000000000000000        0x0 c:/vega/toolchain/riscv32-unknown-elf-gcc/bin/../lib/gcc/riscv32-unknown-elf/7.1.1/../../../../riscv32-unknown-elf/lib/rv32imcxpulpv2/ilp32\libc.a(lib_a-strncpy.o)
 .data          0x0000000000000000        0x0 c:/vega/toolchain/riscv32-unknown-elf-gcc/bin/../lib/gcc/riscv32-unknown-elf/7.1.1/../../../../riscv32-unknown-elf/lib/rv32imcxpulpv2/ilp32\libc.a(lib_a-strtol.o)
 .bss           0x0000000000000000        0x0 c:/vega/toolchain/riscv32-unknown-elf-gcc/bin/../lib/gcc/riscv32-unknown-elf/7.1.1/../../../../riscv32-unknown-elf/lib/rv32imcxpulpv2/ilp32\libc.a(lib_a-strtol.o)
 .text          0x0000000000000000        0x0 c:/vega/toolchain/riscv32-unknown-elf-gcc/bin/../lib/gcc/riscv32-unknown-elf/7.1.1/../../../../riscv32-unknown-elf/lib/rv32imcxpulpv2/ilp32\libc.a(lib_a-impure.o)
 .bss           0x0000000000000000        0x0 c:/vega/toolchain/riscv32-unknown-elf-gcc/bin/../lib/gcc/riscv32-unknown-elf/7.1.1/../../../../riscv32-unknown-elf/lib/rv32imcxpulpv2/ilp32\libc.a(lib_a-impure.o)
 .bss           0x0000000000000000        0x0 c:/vega/toolchain/riscv32-unknown-elf-gcc/bin/../lib/gcc/riscv32-unknown-elf/7.1.1/../../../../riscv32-unknown-elf/lib/rv32imcxpulpv2/ilp32\libc.a(lib_a-locale.o)
 .sbss          0x0000000000000000        0x4 c:/vega/toolchain/riscv32-unknown-elf-gcc/bin/../lib/gcc/riscv32-unknown-elf/7.1.1/../../../../riscv32-unknown-elf/lib/rv32imcxpulpv2/ilp32\libc.a(lib_a-locale.o)
 .data          0x0000000000000000        0x0 c:/vega/toolchain/riscv32-unknown-elf-gcc/bin/../lib/gcc/riscv32-unknown-elf/7.1.1/../../../../riscv32-unknown-elf/lib/rv32imcxpulpv2/ilp32\libc.a(lib_a-mbtowc_r.o)
 .bss           0x0000000000000000        0x0 c:/vega/toolchain/riscv32-unknown-elf-gcc/bin/../lib/gcc/riscv32-unknown-elf/7.1.1/../../../../riscv32-unknown-elf/lib/rv32imcxpulpv2/ilp32\libc.a(lib_a-mbtowc_r.o)
 .text          0x0000000000000000       0xfe c:/vega/toolchain/riscv32-unknown-elf-gcc/bin/../lib/gcc/riscv32-unknown-elf/7.1.1/../../../../riscv32-unknown-elf/lib/rv32imcxpulpv2/ilp32\libc.a(lib_a-nano-mallocr.o)
 .data          0x0000000000000000        0x0 c:/vega/toolchain/riscv32-unknown-elf-gcc/bin/../lib/gcc/riscv32-unknown-elf/7.1.1/../../../../riscv32-unknown-elf/lib/rv32imcxpulpv2/ilp32\libc.a(lib_a-nano-mallocr.o)
 .bss           0x0000000000000000        0x0 c:/vega/toolchain/riscv32-unknown-elf-gcc/bin/../lib/gcc/riscv32-unknown-elf/7.1.1/../../../../riscv32-unknown-elf/lib/rv32imcxpulpv2/ilp32\libc.a(lib_a-nano-mallocr.o)
 .sbss          0x0000000000000000        0x8 c:/vega/toolchain/riscv32-unknown-elf-gcc/bin/../lib/gcc/riscv32-unknown-elf/7.1.1/../../../../riscv32-unknown-elf/lib/rv32imcxpulpv2/ilp32\libc.a(lib_a-nano-mallocr.o)
 .comment       0x0000000000000000       0x1b c:/vega/toolchain/riscv32-unknown-elf-gcc/bin/../lib/gcc/riscv32-unknown-elf/7.1.1/../../../../riscv32-unknown-elf/lib/rv32imcxpulpv2/ilp32\libc.a(lib_a-nano-mallocr.o)
 .Pulp_Chip.Info
                0x0000000000000000        0x0 c:/vega/toolchain/riscv32-unknown-elf-gcc/bin/../lib/gcc/riscv32-unknown-elf/7.1.1/../../../../riscv32-unknown-elf/lib/rv32imcxpulpv2/ilp32\libc.a(lib_a-nano-mallocr.o)
 .text          0x0000000000000000       0x32 c:/vega/toolchain/riscv32-unknown-elf-gcc/bin/../lib/gcc/riscv32-unknown-elf/7.1.1/../../../../riscv32-unknown-elf/lib/rv32imcxpulpv2/ilp32\libc.a(lib_a-sbrkr.o)
 .data          0x0000000000000000        0x0 c:/vega/toolchain/riscv32-unknown-elf-gcc/bin/../lib/gcc/riscv32-unknown-elf/7.1.1/../../../../riscv32-unknown-elf/lib/rv32imcxpulpv2/ilp32\libc.a(lib_a-sbrkr.o)
 .bss           0x0000000000000000        0x0 c:/vega/toolchain/riscv32-unknown-elf-gcc/bin/../lib/gcc/riscv32-unknown-elf/7.1.1/../../../../riscv32-unknown-elf/lib/rv32imcxpulpv2/ilp32\libc.a(lib_a-sbrkr.o)
 .comment       0x0000000000000000       0x1b c:/vega/toolchain/riscv32-unknown-elf-gcc/bin/../lib/gcc/riscv32-unknown-elf/7.1.1/../../../../riscv32-unknown-elf/lib/rv32imcxpulpv2/ilp32\libc.a(lib_a-sbrkr.o)
 .Pulp_Chip.Info
                0x0000000000000000        0x0 c:/vega/toolchain/riscv32-unknown-elf-gcc/bin/../lib/gcc/riscv32-unknown-elf/7.1.1/../../../../riscv32-unknown-elf/lib/rv32imcxpulpv2/ilp32\libc.a(lib_a-sbrkr.o)
 .data          0x0000000000000000        0x0 c:/vega/toolchain/riscv32-unknown-elf-gcc/bin/../lib/gcc/riscv32-unknown-elf/7.1.1/../../../../riscv32-unknown-elf/lib/rv32imcxpulpv2/ilp32\libc.a(lib_a-wctomb_r.o)
 .bss           0x0000000000000000        0x0 c:/vega/toolchain/riscv32-unknown-elf-gcc/bin/../lib/gcc/riscv32-unknown-elf/7.1.1/../../../../riscv32-unknown-elf/lib/rv32imcxpulpv2/ilp32\libc.a(lib_a-wctomb_r.o)
 .text          0x0000000000000000        0x0 c:/vega/toolchain/riscv32-unknown-elf-gcc/bin/../lib/gcc/riscv32-unknown-elf/7.1.1/../../../../riscv32-unknown-elf/lib/rv32imcxpulpv2/ilp32\libc.a(lib_a-ctype_.o)
 .data          0x0000000000000000        0x0 c:/vega/toolchain/riscv32-unknown-elf-gcc/bin/../lib/gcc/riscv32-unknown-elf/7.1.1/../../../../riscv32-unknown-elf/lib/rv32imcxpulpv2/ilp32\libc.a(lib_a-ctype_.o)
 .bss           0x0000000000000000        0x0 c:/vega/toolchain/riscv32-unknown-elf-gcc/bin/../lib/gcc/riscv32-unknown-elf/7.1.1/../../../../riscv32-unknown-elf/lib/rv32imcxpulpv2/ilp32\libc.a(lib_a-ctype_.o)
 .text          0x0000000000000000        0x4 c:/vega/toolchain/riscv32-unknown-elf-gcc/bin/../lib/gcc/riscv32-unknown-elf/7.1.1/../../../../riscv32-unknown-elf/lib/rv32imcxpulpv2/ilp32\libc.a(lib_a-mlock.o)
 .data          0x0000000000000000        0x0 c:/vega/toolchain/riscv32-unknown-elf-gcc/bin/../lib/gcc/riscv32-unknown-elf/7.1.1/../../../../riscv32-unknown-elf/lib/rv32imcxpulpv2/ilp32\libc.a(lib_a-mlock.o)
 .bss           0x0000000000000000        0x0 c:/vega/toolchain/riscv32-unknown-elf-gcc/bin/../lib/gcc/riscv32-unknown-elf/7.1.1/../../../../riscv32-unknown-elf/lib/rv32imcxpulpv2/ilp32\libc.a(lib_a-mlock.o)
 .comment       0x0000000000000000       0x1b c:/vega/toolchain/riscv32-unknown-elf-gcc/bin/../lib/gcc/riscv32-unknown-elf/7.1.1/../../../../riscv32-unknown-elf/lib/rv32imcxpulpv2/ilp32\libc.a(lib_a-mlock.o)
 .Pulp_Chip.Info
                0x0000000000000000        0x0 c:/vega/toolchain/riscv32-unknown-elf-gcc/bin/../lib/gcc/riscv32-unknown-elf/7.1.1/../../../../riscv32-unknown-elf/lib/rv32imcxpulpv2/ilp32\libc.a(lib_a-mlock.o)
 .text          0x0000000000000000       0xee c:/vega/toolchain/riscv32-unknown-elf-gcc/bin/../lib/gcc/riscv32-unknown-elf/7.1.1/../../../../riscv32-unknown-elf/lib/rv32imcxpulpv2/ilp32\libc.a(lib_a-reent.o)
 .data          0x0000000000000000        0x0 c:/vega/toolchain/riscv32-unknown-elf-gcc/bin/../lib/gcc/riscv32-unknown-elf/7.1.1/../../../../riscv32-unknown-elf/lib/rv32imcxpulpv2/ilp32\libc.a(lib_a-reent.o)
 .bss           0x0000000000000000        0x0 c:/vega/toolchain/riscv32-unknown-elf-gcc/bin/../lib/gcc/riscv32-unknown-elf/7.1.1/../../../../riscv32-unknown-elf/lib/rv32imcxpulpv2/ilp32\libc.a(lib_a-reent.o)
 .comment       0x0000000000000000       0x1b c:/vega/toolchain/riscv32-unknown-elf-gcc/bin/../lib/gcc/riscv32-unknown-elf/7.1.1/../../../../riscv32-unknown-elf/lib/rv32imcxpulpv2/ilp32\libc.a(lib_a-reent.o)
 .Pulp_Chip.Info
                0x0000000000000000        0x0 c:/vega/toolchain/riscv32-unknown-elf-gcc/bin/../lib/gcc/riscv32-unknown-elf/7.1.1/../../../../riscv32-unknown-elf/lib/rv32imcxpulpv2/ilp32\libc.a(lib_a-reent.o)
 COMMON         0x0000000000000000        0x4 c:/vega/toolchain/riscv32-unknown-elf-gcc/bin/../lib/gcc/riscv32-unknown-elf/7.1.1/../../../../riscv32-unknown-elf/lib/rv32imcxpulpv2/ilp32\libc.a(lib_a-reent.o)
 .text          0x0000000000000000       0xb8 c:/vega/toolchain/riscv32-unknown-elf-gcc/bin/../lib/gcc/riscv32-unknown-elf/7.1.1/../../../../riscv32-unknown-elf/lib/rv32imcxpulpv2/ilp32\libc.a(lib_a-nano-freer.o)
 .data          0x0000000000000000        0x0 c:/vega/toolchain/riscv32-unknown-elf-gcc/bin/../lib/gcc/riscv32-unknown-elf/7.1.1/../../../../riscv32-unknown-elf/lib/rv32imcxpulpv2/ilp32\libc.a(lib_a-nano-freer.o)
 .bss           0x0000000000000000        0x0 c:/vega/toolchain/riscv32-unknown-elf-gcc/bin/../lib/gcc/riscv32-unknown-elf/7.1.1/../../../../riscv32-unknown-elf/lib/rv32imcxpulpv2/ilp32\libc.a(lib_a-nano-freer.o)
 .comment       0x0000000000000000       0x1b c:/vega/toolchain/riscv32-unknown-elf-gcc/bin/../lib/gcc/riscv32-unknown-elf/7.1.1/../../../../riscv32-unknown-elf/lib/rv32imcxpulpv2/ilp32\libc.a(lib_a-nano-freer.o)
 .Pulp_Chip.Info
                0x0000000000000000        0x0 c:/vega/toolchain/riscv32-unknown-elf-gcc/bin/../lib/gcc/riscv32-unknown-elf/7.1.1/../../../../riscv32-unknown-elf/lib/rv32imcxpulpv2/ilp32\libc.a(lib_a-nano-freer.o)
 .text          0x0000000000000000       0x24 c:/vega/toolchain/riscv32-unknown-elf-gcc/bin/../lib/gcc/riscv32-unknown-elf/7.1.1/../../../../riscv32-unknown-elf/lib/rv32imcxpulpv2/ilp32\libnosys.a(sbrk.o)
 .data          0x0000000000000000        0x0 c:/vega/toolchain/riscv32-unknown-elf-gcc/bin/../lib/gcc/riscv32-unknown-elf/7.1.1/../../../../riscv32-unknown-elf/lib/rv32imcxpulpv2/ilp32\libnosys.a(sbrk.o)
 .bss           0x0000000000000000        0x0 c:/vega/toolchain/riscv32-unknown-elf-gcc/bin/../lib/gcc/riscv32-unknown-elf/7.1.1/../../../../riscv32-unknown-elf/lib/rv32imcxpulpv2/ilp32\libnosys.a(sbrk.o)
 .sbss          0x0000000000000000        0x4 c:/vega/toolchain/riscv32-unknown-elf-gcc/bin/../lib/gcc/riscv32-unknown-elf/7.1.1/../../../../riscv32-unknown-elf/lib/rv32imcxpulpv2/ilp32\libnosys.a(sbrk.o)
 .comment       0x0000000000000000       0x1b c:/vega/toolchain/riscv32-unknown-elf-gcc/bin/../lib/gcc/riscv32-unknown-elf/7.1.1/../../../../riscv32-unknown-elf/lib/rv32imcxpulpv2/ilp32\libnosys.a(sbrk.o)
 .Pulp_Chip.Info
                0x0000000000000000        0x0 c:/vega/toolchain/riscv32-unknown-elf-gcc/bin/../lib/gcc/riscv32-unknown-elf/7.1.1/../../../../riscv32-unknown-elf/lib/rv32imcxpulpv2/ilp32\libnosys.a(sbrk.o)

Memory Configuration

Name             Origin             Length             Attributes
m_vector         0x00000000000fff00 0x0000000000000100 xr
m_text           0x0000000000000000 0x00000000000fff00 xr
m_data           0x0000000020000000 0x000000000002e800 rw
rpmsg_sh_mem     0x000000002002e800 0x0000000000001800 rw
m_usb_sram       0x0000000048010000 0x0000000000000800 rw
*default*        0x0000000000000000 0xffffffffffffffff

Linker script and memory map

START GROUP
LOAD board\board.o
LOAD board\clock_config.o
LOAD board\pin_mux.o
LOAD drivers\fsl_clock.o
LOAD drivers\fsl_common.o
LOAD drivers\fsl_gpio.o
LOAD drivers\fsl_lpuart.o
LOAD drivers\fsl_msmc.o
LOAD freertos\croutine.o
LOAD freertos\event_groups.o
LOAD freertos\heap_4.o
LOAD freertos\list.o
LOAD freertos\portable\port.o
LOAD freertos\portable\portASM.o
LOAD freertos\queue.o
LOAD freertos\tasks.o
LOAD freertos\timers.o
LOAD source\freertos_hello.o
LOAD startup\startup_RV32M1_ri5cy.o
LOAD startup\system_RV32M1_ri5cy.o
LOAD utilities\fsl_debug_console.o
LOAD utilities\fsl_io.o
LOAD utilities\fsl_log.o
LOAD utilities\fsl_str.o
LOAD c:/vega/toolchain/riscv32-unknown-elf-gcc/bin/../lib/gcc/riscv32-unknown-elf/7.1.1/../../../../riscv32-unknown-elf/lib/rv32imcxpulpv2/ilp32\libnosys.a
LOAD c:/vega/toolchain/riscv32-unknown-elf-gcc/bin/../lib/gcc/riscv32-unknown-elf/7.1.1/rv32imcxpulpv2/ilp32\libgcc.a
LOAD c:/vega/toolchain/riscv32-unknown-elf-gcc/bin/../lib/gcc/riscv32-unknown-elf/7.1.1/../../../../riscv32-unknown-elf/lib/rv32imcxpulpv2/ilp32\libc.a
LOAD c:/vega/toolchain/riscv32-unknown-elf-gcc/bin/../lib/gcc/riscv32-unknown-elf/7.1.1/../../../../riscv32-unknown-elf/lib/rv32imcxpulpv2/ilp32\libm.a
LOAD c:/vega/toolchain/riscv32-unknown-elf-gcc/bin/../lib/gcc/riscv32-unknown-elf/7.1.1/../../../../riscv32-unknown-elf/lib/rv32imcxpulpv2/ilp32\libm.a
LOAD c:/vega/toolchain/riscv32-unknown-elf-gcc/bin/../lib/gcc/riscv32-unknown-elf/7.1.1/../../../../riscv32-unknown-elf/lib/rv32imcxpulpv2/ilp32\libg.a
LOAD c:/vega/toolchain/riscv32-unknown-elf-gcc/bin/../lib/gcc/riscv32-unknown-elf/7.1.1/rv32imcxpulpv2/ilp32\libgcc.a
LOAD c:/vega/toolchain/riscv32-unknown-elf-gcc/bin/../lib/gcc/riscv32-unknown-elf/7.1.1/../../../../riscv32-unknown-elf/lib/rv32imcxpulpv2/ilp32\libnosys.a
END GROUP
                0x0000000000000400                HEAP_SIZE = DEFINED (__heap_size__)?__heap_size__:0x400
                0x0000000000000800                STACK_SIZE = DEFINED (__stack_size__)?__stack_size__:0x800

.noinit_rpmsg_sh_mem
                0x000000002002e800        0x0
 *(.noinit.$rpmsg_sh_mem*)
                0x000000002002e800                . = ALIGN (0x4)

.vectors        0x00000000000fff00       0x90
                0x00000000000fff00                __VECTOR_TABLE = .
 *(.vectors)
 .vectors       0x00000000000fff00       0x90 startup\startup_RV32M1_ri5cy.o

.text           0x0000000000000000     0x6908
                0x0000000000000000                . = ALIGN (0x4)
 *(.startup)
 .startup       0x0000000000000000      0x192 startup\startup_RV32M1_ri5cy.o
                0x0000000000000026                _fini
                0x0000000000000026                _init
                0x000000000000013e                IllegalInstruction_Handler
                0x000000000000016e                LSU_Handler
                0x0000000000000186                IllegalInstruction_HandlerFunc
                0x000000000000018a                Ecall_HandlerFunc
                0x000000000000018e                LSU_HandlerFunc
                0x0000000000000194                . = ALIGN (0x4)
 *fill*         0x0000000000000192        0x2 
                0x0000000000000194                __user_vector = .
 *(user_vectors)
 user_vectors   0x0000000000000194       0xfc startup\system_RV32M1_ri5cy.o
                0x0000000000000194                isrTable
 *(.text)
 .text          0x0000000000000290      0x360 freertos\portable\portASM.o
                0x0000000000000290                xPortStartFirstTask
                0x000000000000031a                Ecall_Handler
                0x0000000000000466                IRQ_Handler
 .text          0x00000000000005f0        0xc c:/vega/toolchain/riscv32-unknown-elf-gcc/bin/../lib/gcc/riscv32-unknown-elf/7.1.1/../../../../riscv32-unknown-elf/lib/rv32imcxpulpv2/ilp32\libc.a(lib_a-atoi.o)
                0x00000000000005f0                atoi
                0x00000000000005f6                _atoi_r
 .text          0x00000000000005fc       0x60 c:/vega/toolchain/riscv32-unknown-elf-gcc/bin/../lib/gcc/riscv32-unknown-elf/7.1.1/../../../../riscv32-unknown-elf/lib/rv32imcxpulpv2/ilp32\libc.a(lib_a-init.o)
                0x00000000000005fc                __libc_init_array
 .text          0x000000000000065c       0xb6 c:/vega/toolchain/riscv32-unknown-elf-gcc/bin/../lib/gcc/riscv32-unknown-elf/7.1.1/../../../../riscv32-unknown-elf/lib/rv32imcxpulpv2/ilp32\libc.a(lib_a-memcpy.o)
                0x000000000000065c                memcpy
 .text          0x0000000000000712       0xa8 c:/vega/toolchain/riscv32-unknown-elf-gcc/bin/../lib/gcc/riscv32-unknown-elf/7.1.1/../../../../riscv32-unknown-elf/lib/rv32imcxpulpv2/ilp32\libc.a(lib_a-memset.o)
                0x0000000000000712                memset
 .text          0x00000000000007ba      0x11e c:/vega/toolchain/riscv32-unknown-elf-gcc/bin/../lib/gcc/riscv32-unknown-elf/7.1.1/../../../../riscv32-unknown-elf/lib/rv32imcxpulpv2/ilp32\libc.a(lib_a-strcmp.o)
                0x00000000000007ba                strcmp
 .text          0x00000000000008d8       0x10 c:/vega/toolchain/riscv32-unknown-elf-gcc/bin/../lib/gcc/riscv32-unknown-elf/7.1.1/../../../../riscv32-unknown-elf/lib/rv32imcxpulpv2/ilp32\libc.a(lib_a-strlen.o)
                0x00000000000008d8                strlen
 .text          0x00000000000008e8       0x2c c:/vega/toolchain/riscv32-unknown-elf-gcc/bin/../lib/gcc/riscv32-unknown-elf/7.1.1/../../../../riscv32-unknown-elf/lib/rv32imcxpulpv2/ilp32\libc.a(lib_a-strncpy.o)
                0x00000000000008e8                strncpy
 .text          0x0000000000000914      0x182 c:/vega/toolchain/riscv32-unknown-elf-gcc/bin/../lib/gcc/riscv32-unknown-elf/7.1.1/../../../../riscv32-unknown-elf/lib/rv32imcxpulpv2/ilp32\libc.a(lib_a-strtol.o)
                0x0000000000000a50                _strtol_r
                0x0000000000000a66                strtol_l
                0x0000000000000a78                strtol
 .text          0x0000000000000a96       0x90 c:/vega/toolchain/riscv32-unknown-elf-gcc/bin/../lib/gcc/riscv32-unknown-elf/7.1.1/../../../../riscv32-unknown-elf/lib/rv32imcxpulpv2/ilp32\libc.a(lib_a-locale.o)
                0x0000000000000a96                _setlocale_r
                0x0000000000000ade                __locale_mb_cur_max
                0x0000000000000af8                __locale_ctype_ptr_l
                0x0000000000000afe                __locale_ctype_ptr
                0x0000000000000b18                setlocale
 .text          0x0000000000000b26       0x54 c:/vega/toolchain/riscv32-unknown-elf-gcc/bin/../lib/gcc/riscv32-unknown-elf/7.1.1/../../../../riscv32-unknown-elf/lib/rv32imcxpulpv2/ilp32\libc.a(lib_a-mbtowc_r.o)
                0x0000000000000b26                _mbtowc_r
                0x0000000000000b40                __ascii_mbtowc
 .text          0x0000000000000b7a       0x3a c:/vega/toolchain/riscv32-unknown-elf-gcc/bin/../lib/gcc/riscv32-unknown-elf/7.1.1/../../../../riscv32-unknown-elf/lib/rv32imcxpulpv2/ilp32\libc.a(lib_a-wctomb_r.o)
                0x0000000000000b7a                _wctomb_r
                0x0000000000000b94                __ascii_wctomb
 *(.text*)
 .text.CLOCK_SetIpSrc
                0x0000000000000bb4       0xa8 board\board.o
 .text.BOARD_InitDebugConsole
                0x0000000000000c5c       0x40 board\board.o
                0x0000000000000c5c                BOARD_InitDebugConsole
 .text.CLOCK_SetRunModeSysClkConfig
                0x0000000000000c9c       0x42 board\clock_config.o
 .text.CLOCK_GetCurSysClkConfig
                0x0000000000000cde       0x42 board\clock_config.o
 .text.CLOCK_CONFIG_FircSafeConfig
                0x0000000000000d20       0xa4 board\clock_config.o
 .text.BOARD_BootClockRUN
                0x0000000000000dc4       0x5e board\clock_config.o
                0x0000000000000dc4                BOARD_BootClockRUN
 .text.CLOCK_EnableClock
                0x0000000000000e22       0x4c board\pin_mux.o
 .text.PORT_SetPinMux
                0x0000000000000e6e       0x46 board\pin_mux.o
 .text.BOARD_InitPins
                0x0000000000000eb4       0x30 board\pin_mux.o
                0x0000000000000eb4                BOARD_InitPins
 .text.CLOCK_GetIpFreq
                0x0000000000000ee4      0x128 drivers\fsl_clock.o
                0x0000000000000ee4                CLOCK_GetIpFreq
 .text.CLOCK_GetSysOscFreq
                0x000000000000100c       0x50 drivers\fsl_clock.o
                0x000000000000100c                CLOCK_GetSysOscFreq
 .text.CLOCK_GetSysOscAsyncFreq
                0x000000000000105c       0x8e drivers\fsl_clock.o
                0x000000000000105c                CLOCK_GetSysOscAsyncFreq
 .text.CLOCK_InitSirc
                0x00000000000010ea       0xb2 drivers\fsl_clock.o
                0x00000000000010ea                CLOCK_InitSirc
 .text.CLOCK_DeinitSirc
                0x000000000000119c       0x48 drivers\fsl_clock.o
                0x000000000000119c                CLOCK_DeinitSirc
 .text.CLOCK_GetSircFreq
                0x00000000000011e4       0x3c drivers\fsl_clock.o
                0x00000000000011e4                CLOCK_GetSircFreq
 .text.CLOCK_GetSircAsyncFreq
                0x0000000000001220       0x8e drivers\fsl_clock.o
                0x0000000000001220                CLOCK_GetSircAsyncFreq
 .text.CLOCK_InitFirc
                0x00000000000012ae      0x14c drivers\fsl_clock.o
                0x00000000000012ae                CLOCK_InitFirc
 .text.CLOCK_DeinitFirc
                0x00000000000013fa       0x4c drivers\fsl_clock.o
                0x00000000000013fa                CLOCK_DeinitFirc
 .text.CLOCK_GetFircFreq
                0x0000000000001446       0x3a drivers\fsl_clock.o
                0x0000000000001446                CLOCK_GetFircFreq
 .text.CLOCK_GetFircAsyncFreq
                0x0000000000001480       0x8e drivers\fsl_clock.o
                0x0000000000001480                CLOCK_GetFircAsyncFreq
 .text.CLOCK_InitLpFll
                0x000000000000150e      0x17a drivers\fsl_clock.o
                0x000000000000150e                CLOCK_InitLpFll
 .text.CLOCK_DeinitLpFll
                0x0000000000001688       0x4c drivers\fsl_clock.o
                0x0000000000001688                CLOCK_DeinitLpFll
 .text.CLOCK_GetLpFllFreq
                0x00000000000016d4       0x3a drivers\fsl_clock.o
                0x00000000000016d4                CLOCK_GetLpFllFreq
 .text.CLOCK_GetLpFllAsyncFreq
                0x000000000000170e       0x72 drivers\fsl_clock.o
                0x000000000000170e                CLOCK_GetLpFllAsyncFreq
 .text.__assert_func
                0x0000000000001780       0x36 drivers\fsl_common.o
                0x0000000000001780                __assert_func
 .text.CLOCK_EnableClock
                0x00000000000017b6       0x4a drivers\fsl_lpuart.o
 .text.LPUART_SoftwareReset
                0x0000000000001800       0x32 drivers\fsl_lpuart.o
 .text.LPUART_WriteByte
                0x0000000000001832       0x22 drivers\fsl_lpuart.o
 .text.LPUART_ReadByte
                0x0000000000001854       0x82 drivers\fsl_lpuart.o
 .text.LPUART_GetInstance
                0x00000000000018d6       0x72 drivers\fsl_lpuart.o
                0x00000000000018d6                LPUART_GetInstance
 .text.LPUART_Init
                0x0000000000001948      0x472 drivers\fsl_lpuart.o
                0x0000000000001948                LPUART_Init
 .text.LPUART_GetDefaultConfig
                0x0000000000001dba       0xb2 drivers\fsl_lpuart.o
                0x0000000000001dba                LPUART_GetDefaultConfig
 .text.LPUART_GetStatusFlags
                0x0000000000001e6c       0x36 drivers\fsl_lpuart.o
                0x0000000000001e6c                LPUART_GetStatusFlags
 .text.LPUART_ClearStatusFlags
                0x0000000000001ea2       0xf6 drivers\fsl_lpuart.o
                0x0000000000001ea2                LPUART_ClearStatusFlags
 .text.LPUART_WriteBlocking
                0x0000000000001f98       0x74 drivers\fsl_lpuart.o
                0x0000000000001f98                LPUART_WriteBlocking
 .text.LPUART_ReadBlocking
                0x000000000000200c      0x164 drivers\fsl_lpuart.o
                0x000000000000200c                LPUART_ReadBlocking
 .text.LPUART0_DriverIRQHandler
                0x0000000000002170      0x1f0 drivers\fsl_lpuart.o
                0x0000000000002170                LPUART0_DriverIRQHandler
 .text.LPUART1_DriverIRQHandler
                0x0000000000002360       0x36 drivers\fsl_lpuart.o
                0x0000000000002360                LPUART1_DriverIRQHandler
 .text.LPUART2_DriverIRQHandler
                0x0000000000002396       0x36 drivers\fsl_lpuart.o
                0x0000000000002396                LPUART2_DriverIRQHandler
 .text.LPUART3_DriverIRQHandler
                0x00000000000023cc       0x36 drivers\fsl_lpuart.o
                0x00000000000023cc                LPUART3_DriverIRQHandler
 .text.pvPortMalloc
                0x0000000000002402      0x17a freertos\heap_4.o
                0x0000000000002402                pvPortMalloc
 .text.vPortFree
                0x000000000000257c       0xb8 freertos\heap_4.o
                0x000000000000257c                vPortFree
 .text.prvHeapInit
                0x0000000000002634       0xd4 freertos\heap_4.o
 .text.prvInsertBlockIntoFreeList
                0x0000000000002708       0xf8 freertos\heap_4.o
 .text.vListInitialise
                0x0000000000002800       0x4c freertos\list.o
                0x0000000000002800                vListInitialise
 .text.vListInitialiseItem
                0x000000000000284c       0x1a freertos\list.o
                0x000000000000284c                vListInitialiseItem
 .text.vListInsertEnd
                0x0000000000002866       0x66 freertos\list.o
                0x0000000000002866                vListInsertEnd
 .text.vListInsert
                0x00000000000028cc       0xa0 freertos\list.o
                0x00000000000028cc                vListInsert
 .text.uxListRemove
                0x000000000000296c       0x70 freertos\list.o
                0x000000000000296c                uxListRemove
 .text.CLOCK_SetIpSrc
                0x00000000000029dc       0xa8 freertos\portable\port.o
 .text.portCPU_IRQ_DISABLE
                0x0000000000002a84       0x1a freertos\portable\port.o
 .text.portCPU_IRQ_ENABLE
                0x0000000000002a9e       0x1a freertos\portable\port.o
 .text.portYIELD
                0x0000000000002ab8       0x28 freertos\portable\port.o
                0x0000000000002ab8                portYIELD
 .text.prvTaskExitError
                0x0000000000002ae0       0x1c freertos\portable\port.o
 .text.pxPortInitialiseStack
                0x0000000000002afc       0xc4 freertos\portable\port.o
                0x0000000000002afc                pxPortInitialiseStack
 .text.xPortStartScheduler
                0x0000000000002bc0       0x38 freertos\portable\port.o
                0x0000000000002bc0                xPortStartScheduler
 .text.vPortEnterCritical
                0x0000000000002bf8       0x42 freertos\portable\port.o
                0x0000000000002bf8                vPortEnterCritical
 .text.vPortExitCritical
                0x0000000000002c3a       0x50 freertos\portable\port.o
                0x0000000000002c3a                vPortExitCritical
 .text.vPortSetInterruptMask
                0x0000000000002c8a       0x3c freertos\portable\port.o
                0x0000000000002c8a                vPortSetInterruptMask
 .text.vPortClearInterruptMask
                0x0000000000002cc6       0x30 freertos\portable\port.o
                0x0000000000002cc6                vPortClearInterruptMask
 .text.LPIT0_IRQHandler
                0x0000000000002cf6       0x2e freertos\portable\port.o
                0x0000000000002cf6                LPIT0_IRQHandler
 .text.xQueueGenericReset
                0x0000000000002d24       0xd6 freertos\queue.o
                0x0000000000002d24                xQueueGenericReset
 .text.xQueueGenericCreate
                0x0000000000002dfa       0x86 freertos\queue.o
                0x0000000000002dfa                xQueueGenericCreate
 .text.prvInitialiseNewQueue
                0x0000000000002e80       0x6c freertos\queue.o
 .text.xQueueGenericSend
                0x0000000000002eec      0x1a0 freertos\queue.o
                0x0000000000002eec                xQueueGenericSend
 .text.xQueueGenericSendFromISR
                0x000000000000308c      0x108 freertos\queue.o
                0x000000000000308c                xQueueGenericSendFromISR
 .text.xQueueGenericReceive
                0x0000000000003194      0x1fc freertos\queue.o
                0x0000000000003194                xQueueGenericReceive
 .text.prvCopyDataToQueue
                0x0000000000003390      0x128 freertos\queue.o
 .text.prvCopyDataFromQueue
                0x00000000000034b8       0x6a freertos\queue.o
 .text.prvUnlockQueue
                0x0000000000003522       0xc4 freertos\queue.o
 .text.prvIsQueueEmpty
                0x00000000000035e6       0x36 freertos\queue.o
 .text.prvIsQueueFull
                0x000000000000361c       0x3e freertos\queue.o
 .text.vQueueAddToRegistry
                0x000000000000365a       0x72 freertos\queue.o
                0x000000000000365a                vQueueAddToRegistry
 .text.vQueueWaitForMessageRestricted
                0x00000000000036cc       0x82 freertos\queue.o
                0x00000000000036cc                vQueueWaitForMessageRestricted
 .text.xTaskCreate
                0x000000000000374e       0xac freertos\tasks.o
                0x000000000000374e                xTaskCreate
 .text.prvInitialiseNewTask
                0x00000000000037fa      0x18a freertos\tasks.o
 .text.prvAddNewTaskToReadyList
                0x0000000000003984      0x10e freertos\tasks.o
 .text.vTaskSuspend
                0x0000000000003a92       0xd0 freertos\tasks.o
                0x0000000000003a92                vTaskSuspend
 .text.vTaskStartScheduler
                0x0000000000003b62       0x84 freertos\tasks.o
                0x0000000000003b62                vTaskStartScheduler
 .text.vTaskSuspendAll
                0x0000000000003be6       0x22 freertos\tasks.o
                0x0000000000003be6                vTaskSuspendAll
 .text.xTaskResumeAll
                0x0000000000003c08      0x150 freertos\tasks.o
                0x0000000000003c08                xTaskResumeAll
 .text.xTaskGetTickCount
                0x0000000000003d58       0x2a freertos\tasks.o
                0x0000000000003d58                xTaskGetTickCount
 .text.xTaskIncrementTick
                0x0000000000003d82      0x1a0 freertos\tasks.o
                0x0000000000003d82                xTaskIncrementTick
 .text.vTaskSwitchContext
                0x0000000000003f22       0xd0 freertos\tasks.o
                0x0000000000003f22                vTaskSwitchContext
 .text.vTaskPlaceOnEventList
                0x0000000000003ff2       0x42 freertos\tasks.o
                0x0000000000003ff2                vTaskPlaceOnEventList
 .text.vTaskPlaceOnEventListRestricted
                0x0000000000004034       0x54 freertos\tasks.o
                0x0000000000004034                vTaskPlaceOnEventListRestricted
 .text.xTaskRemoveFromEventList
                0x0000000000004088       0xda freertos\tasks.o
                0x0000000000004088                xTaskRemoveFromEventList
 .text.vTaskSetTimeOutState
                0x0000000000004162       0x3e freertos\tasks.o
                0x0000000000004162                vTaskSetTimeOutState
 .text.xTaskCheckForTimeOut
                0x00000000000041a0       0xc6 freertos\tasks.o
                0x00000000000041a0                xTaskCheckForTimeOut
 .text.vTaskMissedYield
                0x0000000000004266       0x18 freertos\tasks.o
                0x0000000000004266                vTaskMissedYield
 .text.prvIdleTask
                0x000000000000427e       0x22 freertos\tasks.o
 .text.prvInitialiseTaskLists
                0x00000000000042a0       0xa4 freertos\tasks.o
 .text.prvCheckTasksWaitingTermination
                0x0000000000004344       0x92 freertos\tasks.o
 .text.prvDeleteTCB
                0x00000000000043d6       0x2a freertos\tasks.o
 .text.prvResetNextTaskUnblockTime
                0x0000000000004400       0x4c freertos\tasks.o
 .text.xTaskGetSchedulerState
                0x000000000000444c       0x3a freertos\tasks.o
                0x000000000000444c                xTaskGetSchedulerState
 .text.vTaskPriorityInherit
                0x0000000000004486       0xf4 freertos\tasks.o
                0x0000000000004486                vTaskPriorityInherit
 .text.xTaskPriorityDisinherit
                0x000000000000457a       0xec freertos\tasks.o
                0x000000000000457a                xTaskPriorityDisinherit
 .text.pvTaskIncrementMutexHeldCount
                0x0000000000004666       0x2e freertos\tasks.o
                0x0000000000004666                pvTaskIncrementMutexHeldCount
 .text.prvAddCurrentTaskToDelayedList
                0x0000000000004694       0xd8 freertos\tasks.o
 .text.xTimerCreateTimerTask
                0x000000000000476c       0x58 freertos\timers.o
                0x000000000000476c                xTimerCreateTimerTask
 .text.xTimerGenericCommand
                0x00000000000047c4       0xcc freertos\timers.o
                0x00000000000047c4                xTimerGenericCommand
 .text.prvProcessExpiredTimer
                0x0000000000004890       0x8c freertos\timers.o
 .text.prvTimerTask
                0x000000000000491c       0x28 freertos\timers.o
 .text.prvProcessTimerOrBlockTask
                0x0000000000004944       0xa0 freertos\timers.o
 .text.prvGetNextExpireTime
                0x00000000000049e4       0x4e freertos\timers.o
 .text.prvSampleTimeNow
                0x0000000000004a32       0x52 freertos\timers.o
 .text.prvInsertTimerInActiveList
                0x0000000000004a84       0xb4 freertos\timers.o
 .text.prvProcessReceivedCommands
                0x0000000000004b38      0x15c freertos\timers.o
 .text.prvSwitchTimerLists
                0x0000000000004c94       0xf4 freertos\timers.o
 .text.prvCheckForValidListAndQueue
                0x0000000000004d88       0x8e freertos\timers.o
 .text.main     0x0000000000004e16       0x46 source\freertos_hello.o
                0x0000000000004e16                main
 .text.hello_task
                0x0000000000004e5c       0x1c source\freertos_hello.o
 .text.CLOCK_EnableClock
                0x0000000000004e78       0x4c startup\system_RV32M1_ri5cy.o
 .text.EnableIRQ
                0x0000000000004ec4       0x52 startup\system_RV32M1_ri5cy.o
 .text.copy_section
                0x0000000000004f16       0x48 startup\system_RV32M1_ri5cy.o
 .text.zero_section
                0x0000000000004f5e       0x3e startup\system_RV32M1_ri5cy.o
 .text.DMA0_0_4_8_12_IRQHandler
                0x0000000000004f9c       0x16 startup\system_RV32M1_ri5cy.o
                0x0000000000004f9c                DMA0_0_4_8_12_IRQHandler
 .text.DMA0_1_5_9_13_IRQHandler
                0x0000000000004fb2       0x16 startup\system_RV32M1_ri5cy.o
                0x0000000000004fb2                DMA0_1_5_9_13_IRQHandler
 .text.DMA0_2_6_10_14_IRQHandler
                0x0000000000004fc8       0x16 startup\system_RV32M1_ri5cy.o
                0x0000000000004fc8                DMA0_2_6_10_14_IRQHandler
 .text.DMA0_3_7_11_15_IRQHandler
                0x0000000000004fde       0x16 startup\system_RV32M1_ri5cy.o
                0x0000000000004fde                DMA0_3_7_11_15_IRQHandler
 .text.FLEXIO0_IRQHandler
                0x0000000000004ff4       0x16 startup\system_RV32M1_ri5cy.o
                0x0000000000004ff4                FLEXIO0_IRQHandler
 .text.LPI2C0_IRQHandler
                0x000000000000500a       0x16 startup\system_RV32M1_ri5cy.o
                0x000000000000500a                LPI2C0_IRQHandler
 .text.LPI2C1_IRQHandler
                0x0000000000005020       0x16 startup\system_RV32M1_ri5cy.o
                0x0000000000005020                LPI2C1_IRQHandler
 .text.LPI2C2_IRQHandler
                0x0000000000005036       0x16 startup\system_RV32M1_ri5cy.o
                0x0000000000005036                LPI2C2_IRQHandler
 .text.I2S0_IRQHandler
                0x000000000000504c       0x16 startup\system_RV32M1_ri5cy.o
                0x000000000000504c                I2S0_IRQHandler
 .text.USDHC0_IRQHandler
                0x0000000000005062       0x16 startup\system_RV32M1_ri5cy.o
                0x0000000000005062                USDHC0_IRQHandler
 .text.LPSPI0_IRQHandler
                0x0000000000005078       0x16 startup\system_RV32M1_ri5cy.o
                0x0000000000005078                LPSPI0_IRQHandler
 .text.LPSPI1_IRQHandler
                0x000000000000508e       0x16 startup\system_RV32M1_ri5cy.o
                0x000000000000508e                LPSPI1_IRQHandler
 .text.LPSPI2_IRQHandler
                0x00000000000050a4       0x16 startup\system_RV32M1_ri5cy.o
                0x00000000000050a4                LPSPI2_IRQHandler
 .text.LPUART0_IRQHandler
                0x00000000000050ba       0x16 startup\system_RV32M1_ri5cy.o
                0x00000000000050ba                LPUART0_IRQHandler
 .text.LPUART1_IRQHandler
                0x00000000000050d0       0x16 startup\system_RV32M1_ri5cy.o
                0x00000000000050d0                LPUART1_IRQHandler
 .text.LPUART2_IRQHandler
                0x00000000000050e6       0x16 startup\system_RV32M1_ri5cy.o
                0x00000000000050e6                LPUART2_IRQHandler
 .text.LPI2C3_IRQHandler
                0x00000000000050fc       0x16 startup\system_RV32M1_ri5cy.o
                0x00000000000050fc                LPI2C3_IRQHandler
 .text.LPSPI3_IRQHandler
                0x0000000000005112       0x16 startup\system_RV32M1_ri5cy.o
                0x0000000000005112                LPSPI3_IRQHandler
 .text.LPUART3_IRQHandler
                0x0000000000005128       0x16 startup\system_RV32M1_ri5cy.o
                0x0000000000005128                LPUART3_IRQHandler
 .text.INTMUX0_0_IRQHandler
                0x000000000000513e       0x16 startup\system_RV32M1_ri5cy.o
                0x000000000000513e                INTMUX0_0_IRQHandler
 .text.INTMUX0_1_IRQHandler
                0x0000000000005154       0x16 startup\system_RV32M1_ri5cy.o
                0x0000000000005154                INTMUX0_1_IRQHandler
 .text.INTMUX0_2_IRQHandler
                0x000000000000516a       0x16 startup\system_RV32M1_ri5cy.o
                0x000000000000516a                INTMUX0_2_IRQHandler
 .text.INTMUX0_3_IRQHandler
                0x0000000000005180       0x16 startup\system_RV32M1_ri5cy.o
                0x0000000000005180                INTMUX0_3_IRQHandler
 .text.INTMUX0_4_IRQHandler
                0x0000000000005196       0x16 startup\system_RV32M1_ri5cy.o
                0x0000000000005196                INTMUX0_4_IRQHandler
 .text.INTMUX0_5_IRQHandler
                0x00000000000051ac       0x16 startup\system_RV32M1_ri5cy.o
                0x00000000000051ac                INTMUX0_5_IRQHandler
 .text.INTMUX0_6_IRQHandler
                0x00000000000051c2       0x16 startup\system_RV32M1_ri5cy.o
                0x00000000000051c2                INTMUX0_6_IRQHandler
 .text.INTMUX0_7_IRQHandler
                0x00000000000051d8       0x16 startup\system_RV32M1_ri5cy.o
                0x00000000000051d8                INTMUX0_7_IRQHandler
 .text.DefaultIRQHandler
                0x00000000000051ee        0x8 startup\system_RV32M1_ri5cy.o
                0x00000000000051ee                LPSPI2_DriverIRQHandler
                0x00000000000051ee                INTMUX0_3_DriverIRQHandler
                0x00000000000051ee                LPI2C0_DriverIRQHandler
                0x00000000000051ee                I2S0_DriverIRQHandler
                0x00000000000051ee                LPTMR2_IRQHandler
                0x00000000000051ee                TPM0_IRQHandler
                0x00000000000051ee                INTMUX0_4_DriverIRQHandler
                0x00000000000051ee                LPCMP0_IRQHandler
                0x00000000000051ee                LPI2C3_DriverIRQHandler
                0x00000000000051ee                WDOG0_IRQHandler
                0x00000000000051ee                INTMUX0_1_DriverIRQHandler
                0x00000000000051ee                ADC0_IRQHandler
                0x00000000000051ee                FLEXIO0_DriverIRQHandler
                0x00000000000051ee                EMVSIM0_IRQHandler
                0x00000000000051ee                LPCMP1_IRQHandler
                0x00000000000051ee                INTMUX0_7_DriverIRQHandler
                0x00000000000051ee                FTFE_Command_Complete_IRQHandler
                0x00000000000051ee                INTMUX0_6_DriverIRQHandler
                0x00000000000051ee                PORTD_IRQHandler
                0x00000000000051ee                PORTB_IRQHandler
                0x00000000000051ee                USDHC0_DriverIRQHandler
                0x00000000000051ee                LLWU0_IRQHandler
                0x00000000000051ee                LPDAC0_IRQHandler
                0x00000000000051ee                TPM2_IRQHandler
                0x00000000000051ee                RTC_IRQHandler
                0x00000000000051ee                DMA0_3_7_11_15_DriverIRQHandler
                0x00000000000051ee                CMC0_IRQHandler
                0x00000000000051ee                EWM_IRQHandler
                0x00000000000051ee                DMA0_0_4_8_12_DriverIRQHandler
                0x00000000000051ee                MUA_IRQHandler
                0x00000000000051ee                TPM3_IRQHandler
                0x00000000000051ee                DMA0_2_6_10_14_DriverIRQHandler
                0x00000000000051ee                INTMUX0_0_DriverIRQHandler
                0x00000000000051ee                RF0_0_IRQHandler
                0x00000000000051ee                LPSPI0_DriverIRQHandler
                0x00000000000051ee                USB0_IRQHandler
                0x00000000000051ee                FTFE_Read_Collision_IRQHandler
                0x00000000000051ee                LPI2C1_DriverIRQHandler
                0x00000000000051ee                LPSPI1_DriverIRQHandler
                0x00000000000051ee                SCG_IRQHandler
                0x00000000000051ee                DMA0_1_5_9_13_DriverIRQHandler
                0x00000000000051ee                TPM1_IRQHandler
                0x00000000000051ee                RF0_1_IRQHandler
                0x00000000000051ee                CAU3_Security_Violation_IRQHandler
                0x00000000000051ee                PORTA_IRQHandler
                0x00000000000051ee                LPIT1_IRQHandler
                0x00000000000051ee                INTMUX0_2_DriverIRQHandler
                0x00000000000051ee                CAU3_Task_Complete_IRQHandler
                0x00000000000051ee                INTMUX0_8_DriverIRQHandler
                0x00000000000051ee                PORTE_IRQHandler
                0x00000000000051ee                LPTMR0_IRQHandler
                0x00000000000051ee                SPM_IRQHandler
                0x00000000000051ee                LPSPI3_DriverIRQHandler
                0x00000000000051ee                LPI2C2_DriverIRQHandler
                0x00000000000051ee                DMA0_Error_IRQHandler
                0x00000000000051ee                LPTMR1_IRQHandler
                0x00000000000051ee                INTMUX0_5_DriverIRQHandler
                0x00000000000051ee                TRNG_IRQHandler
                0x00000000000051ee                PORTC_IRQHandler
 .text.SystemInit
                0x00000000000051f6       0xa8 startup\system_RV32M1_ri5cy.o
                0x00000000000051f6                SystemInit
 .text.SystemInitHook
                0x000000000000529e        0xe startup\system_RV32M1_ri5cy.o
                0x000000000000529e                SystemInitHook
 .text.SystemIrqHandler
                0x00000000000052ac       0x80 startup\system_RV32M1_ri5cy.o
                0x00000000000052ac                SystemIrqHandler
 .text.SystemSetupSystick
                0x000000000000532c       0xa0 startup\system_RV32M1_ri5cy.o
                0x000000000000532c                SystemSetupSystick
 .text.SystemClearSystickFlag
                0x00000000000053cc       0x16 startup\system_RV32M1_ri5cy.o
                0x00000000000053cc                SystemClearSystickFlag
 .text.EVENT_SetIRQPriority
                0x00000000000053e2       0x8c startup\system_RV32M1_ri5cy.o
                0x00000000000053e2                EVENT_SetIRQPriority
 .text.DbgConsole_Init
                0x000000000000546e       0x5a utilities\fsl_debug_console.o
                0x000000000000546e                DbgConsole_Init
 .text.DbgConsole_Printf
                0x00000000000054c8       0x7e utilities\fsl_debug_console.o
                0x00000000000054c8                DbgConsole_Printf
 .text.DbgConsole_RelocateLog
                0x0000000000005546       0x92 utilities\fsl_debug_console.o
 .text.LPUART_EnableTx
                0x00000000000055d8       0x46 utilities\fsl_io.o
 .text.LPUART_EnableRx
                0x000000000000561e       0x46 utilities\fsl_io.o
 .text.IO_Init  0x0000000000005664       0xcc utilities\fsl_io.o
                0x0000000000005664                IO_Init
 .text.IO_Transfer
                0x0000000000005730       0x7e utilities\fsl_io.o
                0x0000000000005730                IO_Transfer
 .text.LOG_Init
                0x00000000000057ae       0x4a utilities\fsl_log.o
                0x00000000000057ae                LOG_Init
 .text.LOG_Push
                0x00000000000057f8       0x46 utilities\fsl_log.o
                0x00000000000057f8                LOG_Push
 .text.LOG_Pop  0x000000000000583e       0x50 utilities\fsl_log.o
                0x000000000000583e                LOG_Pop
 .text.ConvertRadixNumToString
                0x000000000000588e      0x1b6 utilities\fsl_str.o
 .text.StrFormatPrintf
                0x0000000000005a44      0x4d6 utilities\fsl_str.o
                0x0000000000005a44                StrFormatPrintf
 *(.rodata)
 *fill*         0x0000000000005f1a        0x2 
 .rodata        0x0000000000005f1c       0x73 board\board.o
 *fill*         0x0000000000005f8f        0x1 
 .rodata        0x0000000000005f90       0x40 board\clock_config.o
 .rodata        0x0000000000005fd0       0x6c board\pin_mux.o
 .rodata        0x000000000000603c      0x104 drivers\fsl_clock.o
 .rodata        0x0000000000006140       0x3e drivers\fsl_common.o
 *fill*         0x000000000000617e        0x2 
 .rodata        0x0000000000006180      0x210 drivers\fsl_lpuart.o
 .rodata        0x0000000000006390       0x73 freertos\portable\port.o
 *fill*         0x0000000000006403        0x1 
 .rodata        0x0000000000006404       0x18 freertos\tasks.o
                0x000000000000640c                FreeRTOSDebugConfig
 .rodata        0x000000000000641c        0xd freertos\timers.o
 *fill*         0x0000000000006429        0x3 
 .rodata        0x000000000000642c       0x3b source\freertos_hello.o
 *fill*         0x0000000000006467        0x1 
 .rodata        0x0000000000006468       0x6c startup\system_RV32M1_ri5cy.o
 .rodata        0x00000000000064d4       0x6e utilities\fsl_debug_console.o
 *fill*         0x0000000000006542        0x2 
 .rodata        0x0000000000006544       0x43 utilities\fsl_io.o
 *fill*         0x0000000000006587        0x1 
 .rodata        0x0000000000006588       0x4f utilities\fsl_log.o
 *fill*         0x00000000000065d7        0x1 
 .rodata        0x00000000000065d8      0x101 c:/vega/toolchain/riscv32-unknown-elf-gcc/bin/../lib/gcc/riscv32-unknown-elf/7.1.1/../../../../riscv32-unknown-elf/lib/rv32imcxpulpv2/ilp32\libc.a(lib_a-ctype_.o)
                0x00000000000065d8                _ctype_
 *(.rodata*)
 *fill*         0x00000000000066d9        0x3 
 .rodata.__func__.3391
                0x00000000000066dc        0xf board\board.o
 *fill*         0x00000000000066eb        0x1 
 .rodata.g_scgSircConfig_BOARD_BootClockRUN
                0x00000000000066ec       0x14 board\clock_config.o
                0x00000000000066ec                g_scgSircConfig_BOARD_BootClockRUN
 .rodata.g_scgFircConfig_BOARD_BootClockRUN
                0x0000000000006700       0x18 board\clock_config.o
                0x0000000000006700                g_scgFircConfig_BOARD_BootClockRUN
 .rodata.g_scgLpFllConfig_BOARD_BootClockRUN
                0x0000000000006718       0x18 board\clock_config.o
                0x0000000000006718                g_scgLpFllConfig_BOARD_BootClockRUN
 .rodata.__func__.3440
                0x0000000000006730       0x1d board\clock_config.o
 *fill*         0x000000000000674d        0x3 
 .rodata.__func__.3448
                0x0000000000006750       0x19 board\clock_config.o
 *fill*         0x0000000000006769        0x3 
 .rodata.__func__.3377
                0x000000000000676c       0x12 board\pin_mux.o
 *fill*         0x000000000000677e        0x2 
 .rodata.__func__.3640
                0x0000000000006780       0x10 drivers\fsl_clock.o
 .rodata.__func__.3686
                0x0000000000006790       0x14 drivers\fsl_clock.o
 .rodata.__func__.3700
                0x00000000000067a4        0xf drivers\fsl_clock.o
 *fill*         0x00000000000067b3        0x1 
 .rodata.__func__.3726
                0x00000000000067b4        0xf drivers\fsl_clock.o
 *fill*         0x00000000000067c3        0x1 
 .rodata.fircFreq.3738
                0x00000000000067c4       0x10 drivers\fsl_clock.o
 .rodata.__func__.3756
                0x00000000000067d4       0x10 drivers\fsl_clock.o
 .rodata.lpfllFreq.3771
                0x00000000000067e4       0x10 drivers\fsl_clock.o
 .rodata.s_lpuartBases
                0x00000000000067f4       0x10 drivers\fsl_lpuart.o
 .rodata.s_lpuartClock
                0x0000000000006804       0x10 drivers\fsl_lpuart.o
 .rodata.__func__.4844
                0x0000000000006814       0x13 drivers\fsl_lpuart.o
 *fill*         0x0000000000006827        0x1 
 .rodata.__func__.4884
                0x0000000000006828        0xc drivers\fsl_lpuart.o
 .rodata.__func__.3377
                0x0000000000006834       0x12 drivers\fsl_lpuart.o
 *fill*         0x0000000000006846        0x2 
 .rodata.__func__.4911
                0x0000000000006848       0x18 drivers\fsl_lpuart.o
 .rodata.__func__.4957
                0x0000000000006860       0x15 drivers\fsl_lpuart.o
 *fill*         0x0000000000006875        0x3 
 .rodata.__func__.4969
                0x0000000000006878       0x14 drivers\fsl_lpuart.o
 .rodata.__func__.3801
                0x000000000000688c        0xf freertos\portable\port.o
 *fill*         0x000000000000689b        0x1 
 .rodata.prvProcessReceivedCommands
                0x000000000000689c       0x28 freertos\timers.o
 .rodata.__func__.3377
                0x00000000000068c4       0x12 startup\system_RV32M1_ri5cy.o
 *fill*         0x00000000000068d6        0x2 
 .rodata.__func__.4270
                0x00000000000068d8       0x10 utilities\fsl_debug_console.o
 .rodata.__func__.4094
                0x00000000000068e8        0x9 utilities\fsl_log.o
 *fill*         0x00000000000068f1        0x3 
 .rodata.str1.4
                0x00000000000068f4       0x14 c:/vega/toolchain/riscv32-unknown-elf-gcc/bin/../lib/gcc/riscv32-unknown-elf/7.1.1/../../../../riscv32-unknown-elf/lib/rv32imcxpulpv2/ilp32\libc.a(lib_a-locale.o)
                                         0x12 (size before relaxing)
 *(.srodata .srodata.*)
 *(.glue_7)
 *(.glue_7t)
 *(.eh_frame)
 *(.init)
 *(.fini)

.rela.dyn       0x0000000000006908        0x0
 .rela.text.CLOCK_SetIpSrc
                0x0000000000006908        0x0 board\board.o
 .rela.text.BOARD_InitDebugConsole
                0x0000000000006908        0x0 board\board.o
 .rela.text.CLOCK_SetVlprModeSysClkConfig
                0x0000000000006908        0x0 board\board.o
 .rela.text.CLOCK_SetRunModeSysClkConfig
                0x0000000000006908        0x0 board\board.o
 .rela.text.CLOCK_SetHsrunModeSysClkConfig
                0x0000000000006908        0x0 board\board.o
 .rela.text.CLOCK_GetCurSysClkConfig
                0x0000000000006908        0x0 board\board.o
 .rela.text.CLOCK_CONFIG_FircSafeConfig
                0x0000000000006908        0x0 board\board.o
 .rela.text.BOARD_BootClockRUN
                0x0000000000006908        0x0 board\board.o
 .rela.text.BOARD_BootClockHSRUN
                0x0000000000006908        0x0 board\board.o
 .rela.text.BOARD_BootClockVLPR
                0x0000000000006908        0x0 board\board.o
 .rela.text.CLOCK_EnableClock
                0x0000000000006908        0x0 board\board.o
 .rela.text.CLOCK_GetOsc32kClkFreq
                0x0000000000006908        0x0 board\board.o
 .rela.text.CLOCK_GetIpFreq
                0x0000000000006908        0x0 board\board.o
 .rela.text.CLOCK_InitSysOsc
                0x0000000000006908        0x0 board\board.o
 .rela.text.CLOCK_GetSysOscFreq
                0x0000000000006908        0x0 board\board.o
 .rela.text.CLOCK_InitSirc
                0x0000000000006908        0x0 board\board.o
 .rela.text.CLOCK_InitFirc
                0x0000000000006908        0x0 board\board.o
 .rela.text.CLOCK_GetRtcOscFreq
                0x0000000000006908        0x0 board\board.o
 .rela.text.CLOCK_InitLpFll
                0x0000000000006908        0x0 board\board.o
 .rela.text.__assert_func
                0x0000000000006908        0x0 board\board.o
 .rela.text.LPUART_TransferCreateHandle
                0x0000000000006908        0x0 board\board.o
 .rela.text.get_stream
                0x0000000000006908        0x0 board\board.o
 .rela.text.LPUART0_DriverIRQHandler
                0x0000000000006908        0x0 board\board.o
 .rela.text.LPUART1_DriverIRQHandler
                0x0000000000006908        0x0 board\board.o
 .rela.text.LPUART2_DriverIRQHandler
                0x0000000000006908        0x0 board\board.o
 .rela.text.LPUART3_DriverIRQHandler
                0x0000000000006908        0x0 board\board.o
 .rela.text.xEventGroupCreate
                0x0000000000006908        0x0 board\board.o
 .rela.text.xEventGroupSync
                0x0000000000006908        0x0 board\board.o
 .rela.text.xEventGroupWaitBits
                0x0000000000006908        0x0 board\board.o
 .rela.text.xEventGroupClearBits
                0x0000000000006908        0x0 board\board.o
 .rela.text.xEventGroupClearBitsFromISR
                0x0000000000006908        0x0 board\board.o
 .rela.text.xEventGroupGetBitsFromISR
                0x0000000000006908        0x0 board\board.o
 .rela.text.xEventGroupSetBits
                0x0000000000006908        0x0 board\board.o
 .rela.text.vEventGroupDelete
                0x0000000000006908        0x0 board\board.o
 .rela.text.xEventGroupSetBitsFromISR
                0x0000000000006908        0x0 board\board.o
 .rela.text.pvPortMalloc
                0x0000000000006908        0x0 board\board.o
 .rela.text.vPortFree
                0x0000000000006908        0x0 board\board.o
 .rela.text.pxPortInitialiseStack
                0x0000000000006908        0x0 board\board.o
 .rela.text.xPortStartScheduler
                0x0000000000006908        0x0 board\board.o
 .rela.text.LPIT0_IRQHandler
                0x0000000000006908        0x0 board\board.o
 .rela.text     0x0000000000006908        0x0 board\board.o
 .rela.text.xQueueGenericReset
                0x0000000000006908        0x0 board\board.o
 .rela.text.xQueueGiveMutexRecursive
                0x0000000000006908        0x0 board\board.o
 .rela.text.xQueueTakeMutexRecursive
                0x0000000000006908        0x0 board\board.o
 .rela.text.xQueueGenericSend
                0x0000000000006908        0x0 board\board.o
 .rela.text.xQueueGenericSendFromISR
                0x0000000000006908        0x0 board\board.o
 .rela.text.xQueueGiveFromISR
                0x0000000000006908        0x0 board\board.o
 .rela.text.xQueueGenericReceive
                0x0000000000006908        0x0 board\board.o
 .rela.text.xQueueReceiveFromISR
                0x0000000000006908        0x0 board\board.o
 .rela.text.prvCopyDataToQueue
                0x0000000000006908        0x0 board\board.o
 .rela.text.prvCopyDataFromQueue
                0x0000000000006908        0x0 board\board.o
 .rela.text.prvUnlockQueue
                0x0000000000006908        0x0 board\board.o
 .rela.text.vQueueWaitForMessageRestricted
                0x0000000000006908        0x0 board\board.o
 .rela.text.prvInitialiseNewTask
                0x0000000000006908        0x0 board\board.o
 .rela.text.vTaskStartScheduler
                0x0000000000006908        0x0 board\board.o
 .rela.text.main
                0x0000000000006908        0x0 board\board.o
 .rela.text.hello_task
                0x0000000000006908        0x0 board\board.o
 .rela.vectors  0x0000000000006908        0x0 board\board.o
 .rela.text.DMA0_0_4_8_12_IRQHandler
                0x0000000000006908        0x0 board\board.o
 .rela.text.DMA0_1_5_9_13_IRQHandler
                0x0000000000006908        0x0 board\board.o
 .rela.text.DMA0_2_6_10_14_IRQHandler
                0x0000000000006908        0x0 board\board.o
 .rela.text.DMA0_3_7_11_15_IRQHandler
                0x0000000000006908        0x0 board\board.o
 .rela.text.FLEXIO0_IRQHandler
                0x0000000000006908        0x0 board\board.o
 .rela.text.LPI2C0_IRQHandler
                0x0000000000006908        0x0 board\board.o
 .rela.text.LPI2C1_IRQHandler
                0x0000000000006908        0x0 board\board.o
 .rela.text.LPI2C2_IRQHandler
                0x0000000000006908        0x0 board\board.o
 .rela.text.I2S0_IRQHandler
                0x0000000000006908        0x0 board\board.o
 .rela.text.USDHC0_IRQHandler
                0x0000000000006908        0x0 board\board.o
 .rela.text.LPSPI0_IRQHandler
                0x0000000000006908        0x0 board\board.o
 .rela.text.LPSPI1_IRQHandler
                0x0000000000006908        0x0 board\board.o
 .rela.text.LPSPI2_IRQHandler
                0x0000000000006908        0x0 board\board.o
 .rela.text.LPI2C3_IRQHandler
                0x0000000000006908        0x0 board\board.o
 .rela.text.LPSPI3_IRQHandler
                0x0000000000006908        0x0 board\board.o
 .rela.text.INTMUX0_0_IRQHandler
                0x0000000000006908        0x0 board\board.o
 .rela.text.INTMUX0_1_IRQHandler
                0x0000000000006908        0x0 board\board.o
 .rela.text.INTMUX0_2_IRQHandler
                0x0000000000006908        0x0 board\board.o
 .rela.text.INTMUX0_3_IRQHandler
                0x0000000000006908        0x0 board\board.o
 .rela.text.INTMUX0_4_IRQHandler
                0x0000000000006908        0x0 board\board.o
 .rela.text.INTMUX0_5_IRQHandler
                0x0000000000006908        0x0 board\board.o
 .rela.text.INTMUX0_6_IRQHandler
                0x0000000000006908        0x0 board\board.o
 .rela.text.INTMUX0_7_IRQHandler
                0x0000000000006908        0x0 board\board.o
 .relauser_vectors
                0x0000000000006908        0x0 board\board.o
 .rela.text.SystemInit
                0x0000000000006908        0x0 board\board.o
 .rela.text.DbgConsole_Init
                0x0000000000006908        0x0 board\board.o
 .rela.text.DbgConsole_Deinit
                0x0000000000006908        0x0 board\board.o
 .rela.text.DbgConsole_Flush
                0x0000000000006908        0x0 board\board.o
 .rela.text.DbgConsole_Printf
                0x0000000000006908        0x0 board\board.o
 .rela.text.DbgConsole_Putchar
                0x0000000000006908        0x0 board\board.o
 .rela.text.DbgConsole_Scanf
                0x0000000000006908        0x0 board\board.o
 .rela.text.DbgConsole_Getchar
                0x0000000000006908        0x0 board\board.o
 .rela.text.DbgConsole_RelocateLog
                0x0000000000006908        0x0 board\board.o
 .rela.text._write
                0x0000000000006908        0x0 board\board.o
 .rela.text._read
                0x0000000000006908        0x0 board\board.o
 .rela.text.read
                0x0000000000006908        0x0 board\board.o
 .rela.text.write
                0x0000000000006908        0x0 board\board.o
 .rela.text.StrFormatPrintf
                0x0000000000006908        0x0 board\board.o
 .rela.data     0x0000000000006908        0x0 board\board.o

.preinit_array  0x0000000000006908        0x0
                0x0000000000006908                PROVIDE (__preinit_array_start, .)
 *(.preinit_array*)
                0x0000000000006908                PROVIDE (__preinit_array_end, .)

.init_array     0x0000000000006908        0x0
                0x0000000000006908                PROVIDE (__init_array_start, .)
 *(SORT(.init_array.*))
 *(.init_array*)
                0x0000000000006908                PROVIDE (__init_array_end, .)

.fini_array     0x0000000000006908        0x0
                [!provide]                        PROVIDE (__fini_array_start, .)
 *(SORT(.fini_array.*))
 *(.fini_array*)
                [!provide]                        PROVIDE (__fini_array_end, .)
                0x0000000000006908                __etext = .
                0x0000000000006908                __global_pointer = .
                0x0000000000006908                __DATA_ROM = .

.data           0x0000000020000000      0x5c0 load address 0x0000000000006908
                0x0000000020000000                . = ALIGN (0x4)
                0x0000000020000000                __DATA_RAM = .
                0x0000000020000000                __data_start__ = .
 *(.data)
 .data          0x0000000020000000        0x4 freertos\portable\portASM.o
 *fill*         0x0000000020000004        0x4 
 .data          0x0000000020000008      0x428 c:/vega/toolchain/riscv32-unknown-elf-gcc/bin/../lib/gcc/riscv32-unknown-elf/7.1.1/../../../../riscv32-unknown-elf/lib/rv32imcxpulpv2/ilp32\libc.a(lib_a-impure.o)
 .data          0x0000000020000430      0x16c c:/vega/toolchain/riscv32-unknown-elf-gcc/bin/../lib/gcc/riscv32-unknown-elf/7.1.1/../../../../riscv32-unknown-elf/lib/rv32imcxpulpv2/ilp32\libc.a(lib_a-locale.o)
                0x0000000020000430                __global_locale
 *(.data*)
 *(.sdata .sdata.*)
 .sdata.g_sysClkConfig_BOARD_BootClockRUN
                0x000000002000059c        0x4 board\clock_config.o
                0x000000002000059c                g_sysClkConfig_BOARD_BootClockRUN
 .sdata.sircFreq.3712
                0x00000000200005a0        0x8 drivers\fsl_clock.o
 .sdata.uxCriticalNesting
                0x00000000200005a8        0x4 freertos\portable\port.o
                0x00000000200005a8                uxCriticalNesting
 .sdata.SystemCoreClock
                0x00000000200005ac        0x4 startup\system_RV32M1_ri5cy.o
                0x00000000200005ac                SystemCoreClock
 .sdata.__func__.3848
                0x00000000200005b0        0x8 utilities\fsl_io.o
 .sdata         0x00000000200005b8        0x8 c:/vega/toolchain/riscv32-unknown-elf-gcc/bin/../lib/gcc/riscv32-unknown-elf/7.1.1/../../../../riscv32-unknown-elf/lib/rv32imcxpulpv2/ilp32\libc.a(lib_a-impure.o)
                0x00000000200005b8                _global_impure_ptr
                0x00000000200005bc                _impure_ptr
 *(.heapsram*)
                0x00000000200005c0                __noncachedata_start__ = .
 *(NonCacheable)
                0x00000000200005c0                __noncachedata_end__ = .
 *(.jcr*)
                0x00000000200005c0                . = ALIGN (0x4)
                0x00000000200005c0                __data_end__ = .
                0x0000000000006ec8                __DATA_END = (__DATA_ROM + (__data_end__ - __data_start__))
                0x00000000000fff00                text_end = (ORIGIN (m_text) + LENGTH (m_text))
                0x0000000000000001                ASSERT ((__DATA_END <= text_end), region m_text overflowed with text and data)
                0x00000000200005c0                _edata = .

.bss            0x00000000200005c0     0x2bd8 load address 0x0000000000006ec8
                0x00000000200005c0                . = ALIGN (0x4)
                0x00000000200005c0                __START_BSS = .
                0x00000000200005c0                __bss_start__ = .
 *(.bss)
 *(.bss*)
 .bss.s_lpuartHandle
                0x00000000200005c0       0x10 drivers\fsl_lpuart.o
 .bss.rxChars   0x00000000200005d0      0x100 drivers\fsl_lpuart.o
                0x00000000200005d0                rxChars
 .bss.appData   0x00000000200006d0      0x100 drivers\fsl_lpuart.o
                0x00000000200006d0                appData
 .bss.ucHeap    0x00000000200007d0     0x2800 freertos\heap_4.o
 .bss.xQueueRegistry
                0x0000000020002fd0       0x40 freertos\queue.o
                0x0000000020002fd0                xQueueRegistry
 .bss.pxReadyTasksLists
                0x0000000020003010       0x64 freertos\tasks.o
 .bss.xDelayedTaskList1
                0x0000000020003074       0x14 freertos\tasks.o
 .bss.xDelayedTaskList2
                0x0000000020003088       0x14 freertos\tasks.o
 .bss.xPendingReadyList
                0x000000002000309c       0x14 freertos\tasks.o
 .bss.xTasksWaitingTermination
                0x00000000200030b0       0x14 freertos\tasks.o
 .bss.xSuspendedTaskList
                0x00000000200030c4       0x14 freertos\tasks.o
 .bss.xActiveTimerList1
                0x00000000200030d8       0x14 freertos\timers.o
 .bss.xActiveTimerList2
                0x00000000200030ec       0x14 freertos\timers.o
 *(.sbss)
 *(.sbss*)
 .sbss.g_xtal0Freq
                0x0000000020003100        0x4 drivers\fsl_clock.o
                0x0000000020003100                g_xtal0Freq
 .sbss.s_lpuartIsr
                0x0000000020003104        0x4 drivers\fsl_lpuart.o
 .sbss.irq_counter
                0x0000000020003108        0x1 drivers\fsl_lpuart.o
                0x0000000020003108                irq_counter
 .sbss.len      0x0000000020003109        0x1 drivers\fsl_lpuart.o
                0x0000000020003109                len
 .sbss.header_ok
                0x000000002000310a        0x1 drivers\fsl_lpuart.o
                0x000000002000310a                header_ok
 .sbss.length_ok
                0x000000002000310b        0x1 drivers\fsl_lpuart.o
                0x000000002000310b                length_ok
 .sbss.appdata_ok
                0x000000002000310c        0x1 drivers\fsl_lpuart.o
                0x000000002000310c                appdata_ok
 .sbss.aux      0x000000002000310d        0x1 drivers\fsl_lpuart.o
                0x000000002000310d                aux
 *fill*         0x000000002000310e        0x2 
 .sbss.header   0x0000000020003110        0x8 drivers\fsl_lpuart.o
                0x0000000020003110                header
 .sbss.length   0x0000000020003118        0x2 drivers\fsl_lpuart.o
                0x0000000020003118                length
 *fill*         0x000000002000311a        0x2 
 .sbss.xStart   0x000000002000311c        0x8 freertos\heap_4.o
 .sbss.pxEnd    0x0000000020003124        0x4 freertos\heap_4.o
 .sbss.xFreeBytesRemaining
                0x0000000020003128        0x4 freertos\heap_4.o
 .sbss.xMinimumEverFreeBytesRemaining
                0x000000002000312c        0x4 freertos\heap_4.o
 .sbss.xBlockAllocatedBit
                0x0000000020003130        0x4 freertos\heap_4.o
 .sbss.uxInterruptNesting
                0x0000000020003134        0x4 freertos\portable\port.o
                0x0000000020003134                uxInterruptNesting
 .sbss.uxYieldRequired
                0x0000000020003138        0x4 freertos\portable\port.o
                0x0000000020003138                uxYieldRequired
 .sbss.pxCurrentTCB
                0x000000002000313c        0x4 freertos\tasks.o
                0x000000002000313c                pxCurrentTCB
 .sbss.pxDelayedTaskList
                0x0000000020003140        0x4 freertos\tasks.o
 .sbss.pxOverflowDelayedTaskList
                0x0000000020003144        0x4 freertos\tasks.o
 .sbss.uxDeletedTasksWaitingCleanUp
                0x0000000020003148        0x4 freertos\tasks.o
 .sbss.uxCurrentNumberOfTasks
                0x000000002000314c        0x4 freertos\tasks.o
 .sbss.xTickCount
                0x0000000020003150        0x4 freertos\tasks.o
 .sbss.uxTopReadyPriority
                0x0000000020003154        0x4 freertos\tasks.o
 .sbss.xSchedulerRunning
                0x0000000020003158        0x4 freertos\tasks.o
 .sbss.uxPendedTicks
                0x000000002000315c        0x4 freertos\tasks.o
 .sbss.xYieldPending
                0x0000000020003160        0x4 freertos\tasks.o
 .sbss.xNumOfOverflows
                0x0000000020003164        0x4 freertos\tasks.o
 .sbss.uxTaskNumber
                0x0000000020003168        0x4 freertos\tasks.o
 .sbss.xNextTaskUnblockTime
                0x000000002000316c        0x4 freertos\tasks.o
 .sbss.xIdleTaskHandle
                0x0000000020003170        0x4 freertos\tasks.o
 .sbss.uxSchedulerSuspended
                0x0000000020003174        0x4 freertos\tasks.o
 .sbss.pxCurrentTimerList
                0x0000000020003178        0x4 freertos\timers.o
 .sbss.pxOverflowTimerList
                0x000000002000317c        0x4 freertos\timers.o
 .sbss.xTimerQueue
                0x0000000020003180        0x4 freertos\timers.o
 .sbss.xTimerTaskHandle
                0x0000000020003184        0x4 freertos\timers.o
 .sbss.xLastTime.4621
                0x0000000020003188        0x4 freertos\timers.o
 .sbss.irqNesting
                0x000000002000318c        0x4 startup\system_RV32M1_ri5cy.o
 .sbss.s_debugConsoleIO
                0x0000000020003190        0x8 utilities\fsl_io.o
 *(COMMON)
                0x0000000020003198                . = ALIGN (0x4)
                0x0000000020003198                __bss_end__ = .
                0x0000000020003198                __END_BSS = .
                0x0000000020003198                _end = .
                0x0000000020003198                PROVIDE (end, .)

.heap           0x0000000020003198      0x400 load address 0x0000000000009aa0
                0x0000000020003198                . = ALIGN (0x8)
                0x0000000020003198                __heap_start = .
                0x0000000020003598                . = (. + HEAP_SIZE)
 *fill*         0x0000000020003198      0x400 
                0x0000000020003598                __heap_end = .
                0x0000000020003598                _heap_end = __heap_end

.stack          0x0000000020003598      0x800 load address 0x0000000000009ea0
                0x0000000020003598                . = ALIGN (0x8)
                0x0000000020003598                __StackLimit = .
                0x0000000020003d98                . = (. + STACK_SIZE)
 *fill*         0x0000000020003598      0x800 
                0x0000000020003d98                __StackTop = .

m_usb_bdt       0x0000000048010000        0x0
                0x0000000048010000                . = ALIGN (0x200)
 *(m_usb_bdt)

m_usb_global
 *(m_usb_global)
                [!provide]                        PROVIDE (__stack, __StackTop)
OUTPUT(freertos_hello_ri5cy_rv32m1_vega.elf elf32-littleriscv)

.debug_frame    0x0000000000000000     0x4654
 .debug_frame   0x0000000000000000       0x88 board\board.o
 .debug_frame   0x0000000000000088      0x294 board\clock_config.o
 .debug_frame   0x000000000000031c       0xf8 board\pin_mux.o
 .debug_frame   0x0000000000000414      0x714 drivers\fsl_clock.o
 .debug_frame   0x0000000000000b28       0x38 drivers\fsl_common.o
 .debug_frame   0x0000000000000b60      0x918 drivers\fsl_lpuart.o
 .debug_frame   0x0000000000001478      0x18c freertos\heap_4.o
 .debug_frame   0x0000000000001604      0x114 freertos\list.o
 .debug_frame   0x0000000000001718      0x308 freertos\portable\port.o
 .debug_frame   0x0000000000001a20      0x770 freertos\queue.o
 .debug_frame   0x0000000000002190      0xd94 freertos\tasks.o
 .debug_frame   0x0000000000002f24      0x51c freertos\timers.o
 .debug_frame   0x0000000000003440       0x60 source\freertos_hello.o
 .debug_frame   0x00000000000034a0      0x9b8 startup\system_RV32M1_ri5cy.o
 .debug_frame   0x0000000000003e58      0x3b4 utilities\fsl_debug_console.o
 .debug_frame   0x000000000000420c      0x168 utilities\fsl_io.o
 .debug_frame   0x0000000000004374      0x1f0 utilities\fsl_log.o
 .debug_frame   0x0000000000004564       0xf0 utilities\fsl_str.o

.debug_info     0x0000000000000000    0x15ec0
 .debug_info    0x0000000000000000     0x1252 board\board.o
 .debug_info    0x0000000000001252     0x1843 board\clock_config.o
 .debug_info    0x0000000000002a95      0xd0f board\pin_mux.o
 .debug_info    0x00000000000037a4     0x21ac drivers\fsl_clock.o
 .debug_info    0x0000000000005950      0x904 drivers\fsl_common.o
 .debug_info    0x0000000000006254     0x24a5 drivers\fsl_lpuart.o
 .debug_info    0x00000000000086f9      0xcbf freertos\heap_4.o
 .debug_info    0x00000000000093b8      0xae0 freertos\list.o
 .debug_info    0x0000000000009e98      0xf94 freertos\portable\port.o
 .debug_info    0x000000000000ae2c       0xd7 freertos\portable\portASM.o
 .debug_info    0x000000000000af03     0x17b7 freertos\queue.o
 .debug_info    0x000000000000c6ba     0x2341 freertos\tasks.o
 .debug_info    0x000000000000e9fb     0x147f freertos\timers.o
 .debug_info    0x000000000000fe7a      0xef4 source\freertos_hello.o
 .debug_info    0x0000000000010d6e       0xc5 startup\startup_RV32M1_ri5cy.o
 .debug_info    0x0000000000010e33     0x1890 startup\system_RV32M1_ri5cy.o
 .debug_info    0x00000000000126c3      0xf5d utilities\fsl_debug_console.o
 .debug_info    0x0000000000013620      0xfee utilities\fsl_io.o
 .debug_info    0x000000000001460e      0xb91 utilities\fsl_log.o
 .debug_info    0x000000000001519f      0xd21 utilities\fsl_str.o

.debug_abbrev   0x0000000000000000     0x3282
 .debug_abbrev  0x0000000000000000      0x269 board\board.o
 .debug_abbrev  0x0000000000000269      0x350 board\clock_config.o
 .debug_abbrev  0x00000000000005b9      0x250 board\pin_mux.o
 .debug_abbrev  0x0000000000000809      0x34d drivers\fsl_clock.o
 .debug_abbrev  0x0000000000000b56      0x1b9 drivers\fsl_common.o
 .debug_abbrev  0x0000000000000d0f      0x3d6 drivers\fsl_lpuart.o
 .debug_abbrev  0x00000000000010e5      0x293 freertos\heap_4.o
 .debug_abbrev  0x0000000000001378      0x202 freertos\list.o
 .debug_abbrev  0x000000000000157a      0x3a3 freertos\portable\port.o
 .debug_abbrev  0x000000000000191d       0x14 freertos\portable\portASM.o
 .debug_abbrev  0x0000000000001931      0x2c1 freertos\queue.o
 .debug_abbrev  0x0000000000001bf2      0x362 freertos\tasks.o
 .debug_abbrev  0x0000000000001f54      0x2b4 freertos\timers.o
 .debug_abbrev  0x0000000000002208      0x22f source\freertos_hello.o
 .debug_abbrev  0x0000000000002437       0x12 startup\startup_RV32M1_ri5cy.o
 .debug_abbrev  0x0000000000002449      0x39e startup\system_RV32M1_ri5cy.o
 .debug_abbrev  0x00000000000027e7      0x2c7 utilities\fsl_debug_console.o
 .debug_abbrev  0x0000000000002aae      0x2b2 utilities\fsl_io.o
 .debug_abbrev  0x0000000000002d60      0x29b utilities\fsl_log.o
 .debug_abbrev  0x0000000000002ffb      0x287 utilities\fsl_str.o

.debug_aranges  0x0000000000000000      0xb98
 .debug_aranges
                0x0000000000000000       0x28 board\board.o
 .debug_aranges
                0x0000000000000028       0x70 board\clock_config.o
 .debug_aranges
                0x0000000000000098       0x38 board\pin_mux.o
 .debug_aranges
                0x00000000000000d0      0x110 drivers\fsl_clock.o
 .debug_aranges
                0x00000000000001e0       0x20 drivers\fsl_common.o
 .debug_aranges
                0x0000000000000200      0x158 drivers\fsl_lpuart.o
 .debug_aranges
                0x0000000000000358       0x50 freertos\heap_4.o
 .debug_aranges
                0x00000000000003a8       0x40 freertos\list.o
 .debug_aranges
                0x00000000000003e8       0x88 freertos\portable\port.o
 .debug_aranges
                0x0000000000000470       0x20 freertos\portable\portASM.o
 .debug_aranges
                0x0000000000000490      0x118 freertos\queue.o
 .debug_aranges
                0x00000000000005a8      0x1f8 freertos\tasks.o
 .debug_aranges
                0x00000000000007a0       0xc8 freertos\timers.o
 .debug_aranges
                0x0000000000000868       0x28 source\freertos_hello.o
 .debug_aranges
                0x0000000000000890       0x28 startup\startup_RV32M1_ri5cy.o
 .debug_aranges
                0x00000000000008b8      0x170 startup\system_RV32M1_ri5cy.o
 .debug_aranges
                0x0000000000000a28       0x98 utilities\fsl_debug_console.o
 .debug_aranges
                0x0000000000000ac0       0x48 utilities\fsl_io.o
 .debug_aranges
                0x0000000000000b08       0x58 utilities\fsl_log.o
 .debug_aranges
                0x0000000000000b60       0x38 utilities\fsl_str.o

.debug_ranges   0x0000000000000000      0xa50
 .debug_ranges  0x0000000000000000       0x18 board\board.o
 .debug_ranges  0x0000000000000018       0x60 board\clock_config.o
 .debug_ranges  0x0000000000000078       0x28 board\pin_mux.o
 .debug_ranges  0x00000000000000a0      0x100 drivers\fsl_clock.o
 .debug_ranges  0x00000000000001a0       0x10 drivers\fsl_common.o
 .debug_ranges  0x00000000000001b0      0x148 drivers\fsl_lpuart.o
 .debug_ranges  0x00000000000002f8       0x40 freertos\heap_4.o
 .debug_ranges  0x0000000000000338       0x30 freertos\list.o
 .debug_ranges  0x0000000000000368       0x78 freertos\portable\port.o
 .debug_ranges  0x00000000000003e0      0x108 freertos\queue.o
 .debug_ranges  0x00000000000004e8      0x1e8 freertos\tasks.o
 .debug_ranges  0x00000000000006d0       0xb8 freertos\timers.o
 .debug_ranges  0x0000000000000788       0x18 source\freertos_hello.o
 .debug_ranges  0x00000000000007a0       0x20 startup\startup_RV32M1_ri5cy.o
 .debug_ranges  0x00000000000007c0      0x160 startup\system_RV32M1_ri5cy.o
 .debug_ranges  0x0000000000000920       0x88 utilities\fsl_debug_console.o
 .debug_ranges  0x00000000000009a8       0x38 utilities\fsl_io.o
 .debug_ranges  0x00000000000009e0       0x48 utilities\fsl_log.o
 .debug_ranges  0x0000000000000a28       0x28 utilities\fsl_str.o

.debug_line     0x0000000000000000     0x9c4a
 .debug_line    0x0000000000000000      0x226 board\board.o
 .debug_line    0x0000000000000226      0x44f board\clock_config.o
 .debug_line    0x0000000000000675      0x240 board\pin_mux.o
 .debug_line    0x00000000000008b5      0xc84 drivers\fsl_clock.o
 .debug_line    0x0000000000001539      0x1fa drivers\fsl_common.o
 .debug_line    0x0000000000001733     0x1606 drivers\fsl_lpuart.o
 .debug_line    0x0000000000002d39      0x526 freertos\heap_4.o
 .debug_line    0x000000000000325f      0x3db freertos\list.o
 .debug_line    0x000000000000363a      0x590 freertos\portable\port.o
 .debug_line    0x0000000000003bca      0x144 freertos\portable\portASM.o
 .debug_line    0x0000000000003d0e     0x11c9 freertos\queue.o
 .debug_line    0x0000000000004ed7     0x1dd3 freertos\tasks.o
 .debug_line    0x0000000000006caa      0x9c5 freertos\timers.o
 .debug_line    0x000000000000766f      0x268 source\freertos_hello.o
 .debug_line    0x00000000000078d7      0x33e startup\startup_RV32M1_ri5cy.o
 .debug_line    0x0000000000007c15      0x827 startup\system_RV32M1_ri5cy.o
 .debug_line    0x000000000000843c      0x596 utilities\fsl_debug_console.o
 .debug_line    0x00000000000089d2      0x39b utilities\fsl_io.o
 .debug_line    0x0000000000008d6d      0x411 utilities\fsl_log.o
 .debug_line    0x000000000000917e      0xacc utilities\fsl_str.o

.debug_str      0x0000000000000000     0x65db
 .debug_str     0x0000000000000000     0x1277 board\board.o
                                       0x1316 (size before relaxing)
 .debug_str     0x0000000000001277      0xbd3 board\clock_config.o
                                       0x1ac8 (size before relaxing)
 .debug_str     0x0000000000001e4a      0x195 board\pin_mux.o
                                        0xaf9 (size before relaxing)
 .debug_str     0x0000000000001fdf      0x92f drivers\fsl_clock.o
                                       0x205b (size before relaxing)
 .debug_str     0x000000000000290e       0x57 drivers\fsl_common.o
                                        0x646 (size before relaxing)
 .debug_str     0x0000000000002965     0x1450 drivers\fsl_lpuart.o
                                       0x23e1 (size before relaxing)
 .debug_str     0x0000000000003db5      0x208 freertos\heap_4.o
                                        0xd05 (size before relaxing)
 .debug_str     0x0000000000003fbd      0x154 freertos\list.o
                                        0x775 (size before relaxing)
 .debug_str     0x0000000000004111      0x1eb freertos\portable\port.o
                                       0x10e8 (size before relaxing)
 .debug_str     0x00000000000042fc      0x57a freertos\queue.o
                                       0x1175 (size before relaxing)
 .debug_str     0x0000000000004876      0xdc3 freertos\tasks.o
                                       0x1aa5 (size before relaxing)
 .debug_str     0x0000000000005639      0x501 freertos\timers.o
                                       0x1135 (size before relaxing)
 .debug_str     0x0000000000005b3a       0x27 source\freertos_hello.o
                                        0xef3 (size before relaxing)
 .debug_str     0x0000000000005b61      0x464 startup\system_RV32M1_ri5cy.o
                                       0x18b1 (size before relaxing)
 .debug_str     0x0000000000005fc5      0x27d utilities\fsl_debug_console.o
                                        0x99c (size before relaxing)
 .debug_str     0x0000000000006242       0xb4 utilities\fsl_io.o
                                       0x12c7 (size before relaxing)
 .debug_str     0x00000000000062f6       0xa6 utilities\fsl_log.o
                                        0x7b7 (size before relaxing)
 .debug_str     0x000000000000639c      0x23f utilities\fsl_str.o
                                        0x890 (size before relaxing)

.comment        0x0000000000000000       0x1a
 .comment       0x0000000000000000       0x1a board\board.o
                                         0x1b (size before relaxing)
 .comment       0x000000000000001a       0x1b board\clock_config.o
 .comment       0x000000000000001a       0x1b board\pin_mux.o
 .comment       0x000000000000001a       0x1b drivers\fsl_clock.o
 .comment       0x000000000000001a       0x1b drivers\fsl_common.o
 .comment       0x000000000000001a       0x1b drivers\fsl_lpuart.o
 .comment       0x000000000000001a       0x1b freertos\heap_4.o
 .comment       0x000000000000001a       0x1b freertos\list.o
 .comment       0x000000000000001a       0x1b freertos\portable\port.o
 .comment       0x000000000000001a       0x1b freertos\queue.o
 .comment       0x000000000000001a       0x1b freertos\tasks.o
 .comment       0x000000000000001a       0x1b freertos\timers.o
 .comment       0x000000000000001a       0x1b source\freertos_hello.o
 .comment       0x000000000000001a       0x1b startup\system_RV32M1_ri5cy.o
 .comment       0x000000000000001a       0x1b utilities\fsl_debug_console.o
 .comment       0x000000000000001a       0x1b utilities\fsl_io.o
 .comment       0x000000000000001a       0x1b utilities\fsl_log.o
 .comment       0x000000000000001a       0x1b utilities\fsl_str.o
 .comment       0x000000000000001a       0x1b c:/vega/toolchain/riscv32-unknown-elf-gcc/bin/../lib/gcc/riscv32-unknown-elf/7.1.1/../../../../riscv32-unknown-elf/lib/rv32imcxpulpv2/ilp32\libc.a(lib_a-atoi.o)
 .comment       0x000000000000001a       0x1b c:/vega/toolchain/riscv32-unknown-elf-gcc/bin/../lib/gcc/riscv32-unknown-elf/7.1.1/../../../../riscv32-unknown-elf/lib/rv32imcxpulpv2/ilp32\libc.a(lib_a-init.o)
 .comment       0x000000000000001a       0x1b c:/vega/toolchain/riscv32-unknown-elf-gcc/bin/../lib/gcc/riscv32-unknown-elf/7.1.1/../../../../riscv32-unknown-elf/lib/rv32imcxpulpv2/ilp32\libc.a(lib_a-memcpy.o)
 .comment       0x000000000000001a       0x1b c:/vega/toolchain/riscv32-unknown-elf-gcc/bin/../lib/gcc/riscv32-unknown-elf/7.1.1/../../../../riscv32-unknown-elf/lib/rv32imcxpulpv2/ilp32\libc.a(lib_a-strlen.o)
 .comment       0x000000000000001a       0x1b c:/vega/toolchain/riscv32-unknown-elf-gcc/bin/../lib/gcc/riscv32-unknown-elf/7.1.1/../../../../riscv32-unknown-elf/lib/rv32imcxpulpv2/ilp32\libc.a(lib_a-strncpy.o)
 .comment       0x000000000000001a       0x1b c:/vega/toolchain/riscv32-unknown-elf-gcc/bin/../lib/gcc/riscv32-unknown-elf/7.1.1/../../../../riscv32-unknown-elf/lib/rv32imcxpulpv2/ilp32\libc.a(lib_a-strtol.o)
 .comment       0x000000000000001a       0x1b c:/vega/toolchain/riscv32-unknown-elf-gcc/bin/../lib/gcc/riscv32-unknown-elf/7.1.1/../../../../riscv32-unknown-elf/lib/rv32imcxpulpv2/ilp32\libc.a(lib_a-impure.o)
 .comment       0x000000000000001a       0x1b c:/vega/toolchain/riscv32-unknown-elf-gcc/bin/../lib/gcc/riscv32-unknown-elf/7.1.1/../../../../riscv32-unknown-elf/lib/rv32imcxpulpv2/ilp32\libc.a(lib_a-locale.o)
 .comment       0x000000000000001a       0x1b c:/vega/toolchain/riscv32-unknown-elf-gcc/bin/../lib/gcc/riscv32-unknown-elf/7.1.1/../../../../riscv32-unknown-elf/lib/rv32imcxpulpv2/ilp32\libc.a(lib_a-mbtowc_r.o)
 .comment       0x000000000000001a       0x1b c:/vega/toolchain/riscv32-unknown-elf-gcc/bin/../lib/gcc/riscv32-unknown-elf/7.1.1/../../../../riscv32-unknown-elf/lib/rv32imcxpulpv2/ilp32\libc.a(lib_a-wctomb_r.o)
 .comment       0x000000000000001a       0x1b c:/vega/toolchain/riscv32-unknown-elf-gcc/bin/../lib/gcc/riscv32-unknown-elf/7.1.1/../../../../riscv32-unknown-elf/lib/rv32imcxpulpv2/ilp32\libc.a(lib_a-ctype_.o)

.Pulp_Chip.Info
                0x0000000000000000       0x4e
 .Pulp_Chip.Info
                0x0000000000000000       0x4e board\board.o
 .Pulp_Chip.Info
                0x000000000000004e        0x0 board\clock_config.o
 .Pulp_Chip.Info
                0x000000000000004e        0x0 board\pin_mux.o
 .Pulp_Chip.Info
                0x000000000000004e        0x0 drivers\fsl_clock.o
 .Pulp_Chip.Info
                0x000000000000004e        0x0 drivers\fsl_common.o
 .Pulp_Chip.Info
                0x000000000000004e        0x0 drivers\fsl_lpuart.o
 .Pulp_Chip.Info
                0x000000000000004e        0x0 freertos\heap_4.o
 .Pulp_Chip.Info
                0x000000000000004e        0x0 freertos\list.o
 .Pulp_Chip.Info
                0x000000000000004e        0x0 freertos\portable\port.o
 .Pulp_Chip.Info
                0x000000000000004e        0x0 freertos\portable\portASM.o
 .Pulp_Chip.Info
                0x000000000000004e        0x0 freertos\queue.o
 .Pulp_Chip.Info
                0x000000000000004e        0x0 freertos\tasks.o
 .Pulp_Chip.Info
                0x000000000000004e        0x0 freertos\timers.o
 .Pulp_Chip.Info
                0x000000000000004e        0x0 source\freertos_hello.o
 .Pulp_Chip.Info
                0x000000000000004e        0x0 startup\startup_RV32M1_ri5cy.o
 .Pulp_Chip.Info
                0x000000000000004e        0x0 startup\system_RV32M1_ri5cy.o
 .Pulp_Chip.Info
                0x000000000000004e        0x0 utilities\fsl_debug_console.o
 .Pulp_Chip.Info
                0x000000000000004e        0x0 utilities\fsl_io.o
 .Pulp_Chip.Info
                0x000000000000004e        0x0 utilities\fsl_log.o
 .Pulp_Chip.Info
                0x000000000000004e        0x0 utilities\fsl_str.o
 .Pulp_Chip.Info
                0x000000000000004e        0x0 c:/vega/toolchain/riscv32-unknown-elf-gcc/bin/../lib/gcc/riscv32-unknown-elf/7.1.1/../../../../riscv32-unknown-elf/lib/rv32imcxpulpv2/ilp32\libc.a(lib_a-atoi.o)
 .Pulp_Chip.Info
                0x000000000000004e        0x0 c:/vega/toolchain/riscv32-unknown-elf-gcc/bin/../lib/gcc/riscv32-unknown-elf/7.1.1/../../../../riscv32-unknown-elf/lib/rv32imcxpulpv2/ilp32\libc.a(lib_a-init.o)
 .Pulp_Chip.Info
                0x000000000000004e        0x0 c:/vega/toolchain/riscv32-unknown-elf-gcc/bin/../lib/gcc/riscv32-unknown-elf/7.1.1/../../../../riscv32-unknown-elf/lib/rv32imcxpulpv2/ilp32\libc.a(lib_a-memcpy.o)
 .Pulp_Chip.Info
                0x000000000000004e        0x0 c:/vega/toolchain/riscv32-unknown-elf-gcc/bin/../lib/gcc/riscv32-unknown-elf/7.1.1/../../../../riscv32-unknown-elf/lib/rv32imcxpulpv2/ilp32\libc.a(lib_a-memset.o)
 .Pulp_Chip.Info
                0x000000000000004e        0x0 c:/vega/toolchain/riscv32-unknown-elf-gcc/bin/../lib/gcc/riscv32-unknown-elf/7.1.1/../../../../riscv32-unknown-elf/lib/rv32imcxpulpv2/ilp32\libc.a(lib_a-strcmp.o)
 .Pulp_Chip.Info
                0x000000000000004e        0x0 c:/vega/toolchain/riscv32-unknown-elf-gcc/bin/../lib/gcc/riscv32-unknown-elf/7.1.1/../../../../riscv32-unknown-elf/lib/rv32imcxpulpv2/ilp32\libc.a(lib_a-strlen.o)
 .Pulp_Chip.Info
                0x000000000000004e        0x0 c:/vega/toolchain/riscv32-unknown-elf-gcc/bin/../lib/gcc/riscv32-unknown-elf/7.1.1/../../../../riscv32-unknown-elf/lib/rv32imcxpulpv2/ilp32\libc.a(lib_a-strncpy.o)
 .Pulp_Chip.Info
                0x000000000000004e        0x0 c:/vega/toolchain/riscv32-unknown-elf-gcc/bin/../lib/gcc/riscv32-unknown-elf/7.1.1/../../../../riscv32-unknown-elf/lib/rv32imcxpulpv2/ilp32\libc.a(lib_a-strtol.o)
 .Pulp_Chip.Info
                0x000000000000004e        0x0 c:/vega/toolchain/riscv32-unknown-elf-gcc/bin/../lib/gcc/riscv32-unknown-elf/7.1.1/../../../../riscv32-unknown-elf/lib/rv32imcxpulpv2/ilp32\libc.a(lib_a-impure.o)
 .Pulp_Chip.Info
                0x000000000000004e        0x0 c:/vega/toolchain/riscv32-unknown-elf-gcc/bin/../lib/gcc/riscv32-unknown-elf/7.1.1/../../../../riscv32-unknown-elf/lib/rv32imcxpulpv2/ilp32\libc.a(lib_a-locale.o)
 .Pulp_Chip.Info
                0x000000000000004e        0x0 c:/vega/toolchain/riscv32-unknown-elf-gcc/bin/../lib/gcc/riscv32-unknown-elf/7.1.1/../../../../riscv32-unknown-elf/lib/rv32imcxpulpv2/ilp32\libc.a(lib_a-mbtowc_r.o)
 .Pulp_Chip.Info
                0x000000000000004e        0x0 c:/vega/toolchain/riscv32-unknown-elf-gcc/bin/../lib/gcc/riscv32-unknown-elf/7.1.1/../../../../riscv32-unknown-elf/lib/rv32imcxpulpv2/ilp32\libc.a(lib_a-wctomb_r.o)
 .Pulp_Chip.Info
                0x000000000000004e        0x0 c:/vega/toolchain/riscv32-unknown-elf-gcc/bin/../lib/gcc/riscv32-unknown-elf/7.1.1/../../../../riscv32-unknown-elf/lib/rv32imcxpulpv2/ilp32\libc.a(lib_a-ctype_.o)
